ARM GAS  /tmp/cc0PgZmF.s 			page 1


   1              		.cpu cortex-m4
   2              		.eabi_attribute 27, 1
   3              		.eabi_attribute 28, 1
   4              		.eabi_attribute 20, 1
   5              		.eabi_attribute 21, 1
   6              		.eabi_attribute 23, 3
   7              		.eabi_attribute 24, 1
   8              		.eabi_attribute 25, 1
   9              		.eabi_attribute 26, 1
  10              		.eabi_attribute 30, 1
  11              		.eabi_attribute 34, 1
  12              		.eabi_attribute 18, 4
  13              		.file	"motor.c"
  14              		.text
  15              	.Ltext0:
  16              		.cfi_sections	.debug_frame
  17              		.section	.text.Set_motor_Speed,"ax",%progbits
  18              		.align	1
  19              		.global	Set_motor_Speed
  20              		.arch armv7e-m
  21              		.syntax unified
  22              		.thumb
  23              		.thumb_func
  24              		.fpu fpv4-sp-d16
  26              	Set_motor_Speed:
  27              	.LVL0:
  28              	.LFB135:
  29              		.file 1 "Core/Src/motor.c"
   1:Core/Src/motor.c **** #include<motor.h>
   2:Core/Src/motor.c **** #include<main.h>
   3:Core/Src/motor.c **** 
   4:Core/Src/motor.c **** #define DEFALT_SPEED 800 
   5:Core/Src/motor.c **** #define STOP_SPEED 999
   6:Core/Src/motor.c **** 
   7:Core/Src/motor.c **** uint32_t MotorSpeed = DEFALT_SPEED;
   8:Core/Src/motor.c **** 
   9:Core/Src/motor.c **** extern TIM_HandleTypeDef htim3;
  10:Core/Src/motor.c **** 
  11:Core/Src/motor.c **** void Set_Direction(Direction_t direction){
  12:Core/Src/motor.c **** 
  13:Core/Src/motor.c **** 	Motor_Deinit();
  14:Core/Src/motor.c **** 
  15:Core/Src/motor.c **** 	switch(direction) {
  16:Core/Src/motor.c **** 		case forward_m:
  17:Core/Src/motor.c **** 				HAL_GPIO_WritePin(GPIOC, GPIO_FL_Pin, GPIO_PIN_SET);
  18:Core/Src/motor.c **** 				HAL_GPIO_WritePin(GPIOC, GPIO_FR_Pin, GPIO_PIN_SET);
  19:Core/Src/motor.c **** 				HAL_GPIO_WritePin(GPIOC, GPIO_BL_Pin, GPIO_PIN_SET);
  20:Core/Src/motor.c **** 				HAL_GPIO_WritePin(GPIOC, GPIO_BR_Pin, GPIO_PIN_SET);
  21:Core/Src/motor.c **** 				break;
  22:Core/Src/motor.c **** 		case back_m:
  23:Core/Src/motor.c **** 				HAL_GPIO_WritePin(GPIOC, GPIO_FL_Pin, GPIO_PIN_RESET);
  24:Core/Src/motor.c **** 				HAL_GPIO_WritePin(GPIOC, GPIO_FR_Pin, GPIO_PIN_RESET);
  25:Core/Src/motor.c **** 				HAL_GPIO_WritePin(GPIOC, GPIO_BL_Pin, GPIO_PIN_RESET);
  26:Core/Src/motor.c **** 				HAL_GPIO_WritePin(GPIOC, GPIO_BR_Pin, GPIO_PIN_RESET);
  27:Core/Src/motor.c **** 				break;
  28:Core/Src/motor.c **** 		case left_m:
  29:Core/Src/motor.c **** 				HAL_GPIO_WritePin(GPIOC, GPIO_FL_Pin, GPIO_PIN_RESET);
ARM GAS  /tmp/cc0PgZmF.s 			page 2


  30:Core/Src/motor.c **** 				HAL_GPIO_WritePin(GPIOC, GPIO_FR_Pin, GPIO_PIN_SET);
  31:Core/Src/motor.c **** 				HAL_GPIO_WritePin(GPIOC, GPIO_BL_Pin, GPIO_PIN_SET);
  32:Core/Src/motor.c **** 				HAL_GPIO_WritePin(GPIOC, GPIO_BR_Pin, GPIO_PIN_RESET);
  33:Core/Src/motor.c **** 				break;
  34:Core/Src/motor.c **** 		case right_m:
  35:Core/Src/motor.c **** 				HAL_GPIO_WritePin(GPIOC, GPIO_FL_Pin, GPIO_PIN_SET);
  36:Core/Src/motor.c **** 				HAL_GPIO_WritePin(GPIOC, GPIO_FR_Pin, GPIO_PIN_RESET);
  37:Core/Src/motor.c **** 				HAL_GPIO_WritePin(GPIOC, GPIO_BL_Pin, GPIO_PIN_RESET);
  38:Core/Src/motor.c **** 				HAL_GPIO_WritePin(GPIOC, GPIO_BR_Pin, GPIO_PIN_SET);
  39:Core/Src/motor.c **** 				break;
  40:Core/Src/motor.c **** 		default:
  41:Core/Src/motor.c **** 				break;
  42:Core/Src/motor.c **** 	}
  43:Core/Src/motor.c **** 
  44:Core/Src/motor.c **** 	Motor_Init();
  45:Core/Src/motor.c **** 
  46:Core/Src/motor.c **** }
  47:Core/Src/motor.c **** 
  48:Core/Src/motor.c **** 
  49:Core/Src/motor.c **** void Set_motor_Speed(uint32_t MotorSpeed)
  50:Core/Src/motor.c ****   {
  30              		.loc 1 50 3 view -0
  31              		.cfi_startproc
  32              		@ args = 0, pretend = 0, frame = 0
  33              		@ frame_needed = 0, uses_anonymous_args = 0
  34              		@ link register save eliminated.
  51:Core/Src/motor.c **** 
  52:Core/Src/motor.c ****     TIM3 -> CCR1 = MotorSpeed; //
  35              		.loc 1 52 5 view .LVU1
  36              		.loc 1 52 18 is_stmt 0 view .LVU2
  37 0000 024B     		ldr	r3, .L2
  38 0002 5863     		str	r0, [r3, #52]
  53:Core/Src/motor.c ****     TIM3 -> CCR2 = MotorSpeed; //
  39              		.loc 1 53 5 is_stmt 1 view .LVU3
  40              		.loc 1 53 18 is_stmt 0 view .LVU4
  41 0004 9863     		str	r0, [r3, #56]
  54:Core/Src/motor.c ****     TIM3 -> CCR3 = MotorSpeed; //
  42              		.loc 1 54 5 is_stmt 1 view .LVU5
  43              		.loc 1 54 18 is_stmt 0 view .LVU6
  44 0006 D863     		str	r0, [r3, #60]
  55:Core/Src/motor.c ****     TIM3 -> CCR4 = MotorSpeed; //
  45              		.loc 1 55 5 is_stmt 1 view .LVU7
  46              		.loc 1 55 18 is_stmt 0 view .LVU8
  47 0008 1864     		str	r0, [r3, #64]
  56:Core/Src/motor.c **** 
  57:Core/Src/motor.c ****   }
  48              		.loc 1 57 3 view .LVU9
  49 000a 7047     		bx	lr
  50              	.L3:
  51              		.align	2
  52              	.L2:
  53 000c 00040040 		.word	1073742848
  54              		.cfi_endproc
  55              	.LFE135:
  57              		.section	.text.Motor_Init,"ax",%progbits
  58              		.align	1
  59              		.global	Motor_Init
ARM GAS  /tmp/cc0PgZmF.s 			page 3


  60              		.syntax unified
  61              		.thumb
  62              		.thumb_func
  63              		.fpu fpv4-sp-d16
  65              	Motor_Init:
  66              	.LFB136:
  58:Core/Src/motor.c **** 
  59:Core/Src/motor.c **** void Motor_Init()
  60:Core/Src/motor.c ****   {
  67              		.loc 1 60 3 is_stmt 1 view -0
  68              		.cfi_startproc
  69              		@ args = 0, pretend = 0, frame = 0
  70              		@ frame_needed = 0, uses_anonymous_args = 0
  71 0000 10B5     		push	{r4, lr}
  72              	.LCFI0:
  73              		.cfi_def_cfa_offset 8
  74              		.cfi_offset 4, -8
  75              		.cfi_offset 14, -4
  61:Core/Src/motor.c **** 
  62:Core/Src/motor.c ****     // Set_motor_Speed(DEFALT_SPEED); //
  63:Core/Src/motor.c **** 
  64:Core/Src/motor.c **** 	HAL_TIM_PWM_Start(&htim3, TIM_CHANNEL_1);
  76              		.loc 1 64 2 view .LVU11
  77 0002 0A4C     		ldr	r4, .L6
  78 0004 0021     		movs	r1, #0
  79 0006 2046     		mov	r0, r4
  80 0008 FFF7FEFF 		bl	HAL_TIM_PWM_Start
  81              	.LVL1:
  65:Core/Src/motor.c **** 	HAL_TIM_PWM_Start(&htim3, TIM_CHANNEL_2);
  82              		.loc 1 65 2 view .LVU12
  83 000c 0421     		movs	r1, #4
  84 000e 2046     		mov	r0, r4
  85 0010 FFF7FEFF 		bl	HAL_TIM_PWM_Start
  86              	.LVL2:
  66:Core/Src/motor.c **** 	HAL_TIM_PWM_Start(&htim3, TIM_CHANNEL_3);
  87              		.loc 1 66 2 view .LVU13
  88 0014 0821     		movs	r1, #8
  89 0016 2046     		mov	r0, r4
  90 0018 FFF7FEFF 		bl	HAL_TIM_PWM_Start
  91              	.LVL3:
  67:Core/Src/motor.c **** 	HAL_TIM_PWM_Start(&htim3, TIM_CHANNEL_4);
  92              		.loc 1 67 2 view .LVU14
  93 001c 0C21     		movs	r1, #12
  94 001e 2046     		mov	r0, r4
  95 0020 FFF7FEFF 		bl	HAL_TIM_PWM_Start
  96              	.LVL4:
  68:Core/Src/motor.c **** 
  69:Core/Src/motor.c **** 	HAL_Delay(100);
  97              		.loc 1 69 2 view .LVU15
  98 0024 6420     		movs	r0, #100
  99 0026 FFF7FEFF 		bl	HAL_Delay
 100              	.LVL5:
  70:Core/Src/motor.c **** 
  71:Core/Src/motor.c ****   }
 101              		.loc 1 71 3 is_stmt 0 view .LVU16
 102 002a 10BD     		pop	{r4, pc}
 103              	.L7:
ARM GAS  /tmp/cc0PgZmF.s 			page 4


 104              		.align	2
 105              	.L6:
 106 002c 00000000 		.word	htim3
 107              		.cfi_endproc
 108              	.LFE136:
 110              		.section	.text.Motor_Deinit,"ax",%progbits
 111              		.align	1
 112              		.global	Motor_Deinit
 113              		.syntax unified
 114              		.thumb
 115              		.thumb_func
 116              		.fpu fpv4-sp-d16
 118              	Motor_Deinit:
 119              	.LFB137:
  72:Core/Src/motor.c **** 
  73:Core/Src/motor.c **** void Motor_Deinit()
  74:Core/Src/motor.c ****   {
 120              		.loc 1 74 3 is_stmt 1 view -0
 121              		.cfi_startproc
 122              		@ args = 0, pretend = 0, frame = 0
 123              		@ frame_needed = 0, uses_anonymous_args = 0
 124 0000 10B5     		push	{r4, lr}
 125              	.LCFI1:
 126              		.cfi_def_cfa_offset 8
 127              		.cfi_offset 4, -8
 128              		.cfi_offset 14, -4
  75:Core/Src/motor.c **** 
  76:Core/Src/motor.c ****     HAL_TIM_PWM_Stop(&htim3, TIM_CHANNEL_1);
 129              		.loc 1 76 5 view .LVU18
 130 0002 0A4C     		ldr	r4, .L10
 131 0004 0021     		movs	r1, #0
 132 0006 2046     		mov	r0, r4
 133 0008 FFF7FEFF 		bl	HAL_TIM_PWM_Stop
 134              	.LVL6:
  77:Core/Src/motor.c **** 	HAL_TIM_PWM_Stop(&htim3, TIM_CHANNEL_2);
 135              		.loc 1 77 2 view .LVU19
 136 000c 0421     		movs	r1, #4
 137 000e 2046     		mov	r0, r4
 138 0010 FFF7FEFF 		bl	HAL_TIM_PWM_Stop
 139              	.LVL7:
  78:Core/Src/motor.c **** 	HAL_TIM_PWM_Stop(&htim3, TIM_CHANNEL_3);
 140              		.loc 1 78 2 view .LVU20
 141 0014 0821     		movs	r1, #8
 142 0016 2046     		mov	r0, r4
 143 0018 FFF7FEFF 		bl	HAL_TIM_PWM_Stop
 144              	.LVL8:
  79:Core/Src/motor.c **** 	HAL_TIM_PWM_Stop(&htim3, TIM_CHANNEL_4);
 145              		.loc 1 79 2 view .LVU21
 146 001c 0C21     		movs	r1, #12
 147 001e 2046     		mov	r0, r4
 148 0020 FFF7FEFF 		bl	HAL_TIM_PWM_Stop
 149              	.LVL9:
  80:Core/Src/motor.c **** 
  81:Core/Src/motor.c **** 	// Set_motor_Speed(STOP_SPEED);
  82:Core/Src/motor.c **** 
  83:Core/Src/motor.c **** 	HAL_Delay(100);
 150              		.loc 1 83 2 view .LVU22
ARM GAS  /tmp/cc0PgZmF.s 			page 5


 151 0024 6420     		movs	r0, #100
 152 0026 FFF7FEFF 		bl	HAL_Delay
 153              	.LVL10:
  84:Core/Src/motor.c **** 
  85:Core/Src/motor.c ****   }
 154              		.loc 1 85 3 is_stmt 0 view .LVU23
 155 002a 10BD     		pop	{r4, pc}
 156              	.L11:
 157              		.align	2
 158              	.L10:
 159 002c 00000000 		.word	htim3
 160              		.cfi_endproc
 161              	.LFE137:
 163              		.section	.text.Set_Direction,"ax",%progbits
 164              		.align	1
 165              		.global	Set_Direction
 166              		.syntax unified
 167              		.thumb
 168              		.thumb_func
 169              		.fpu fpv4-sp-d16
 171              	Set_Direction:
 172              	.LVL11:
 173              	.LFB134:
  11:Core/Src/motor.c **** 
 174              		.loc 1 11 42 is_stmt 1 view -0
 175              		.cfi_startproc
 176              		@ args = 0, pretend = 0, frame = 0
 177              		@ frame_needed = 0, uses_anonymous_args = 0
  11:Core/Src/motor.c **** 
 178              		.loc 1 11 42 is_stmt 0 view .LVU25
 179 0000 10B5     		push	{r4, lr}
 180              	.LCFI2:
 181              		.cfi_def_cfa_offset 8
 182              		.cfi_offset 4, -8
 183              		.cfi_offset 14, -4
 184 0002 0446     		mov	r4, r0
  13:Core/Src/motor.c **** 
 185              		.loc 1 13 2 is_stmt 1 view .LVU26
 186 0004 FFF7FEFF 		bl	Motor_Deinit
 187              	.LVL12:
  15:Core/Src/motor.c **** 		case forward_m:
 188              		.loc 1 15 2 view .LVU27
 189 0008 032C     		cmp	r4, #3
 190 000a 1AD8     		bhi	.L13
 191 000c DFE804F0 		tbb	[pc, r4]
 192              	.L15:
 193 0010 02       		.byte	(.L18-.L15)/2
 194 0011 1C       		.byte	(.L17-.L15)/2
 195 0012 34       		.byte	(.L16-.L15)/2
 196 0013 4C       		.byte	(.L14-.L15)/2
 197              		.p2align 1
 198              	.L18:
  17:Core/Src/motor.c **** 				HAL_GPIO_WritePin(GPIOC, GPIO_FR_Pin, GPIO_PIN_SET);
 199              		.loc 1 17 5 view .LVU28
 200 0014 304C     		ldr	r4, .L20
 201 0016 0122     		movs	r2, #1
 202 0018 4021     		movs	r1, #64
ARM GAS  /tmp/cc0PgZmF.s 			page 6


 203 001a 2046     		mov	r0, r4
 204 001c FFF7FEFF 		bl	HAL_GPIO_WritePin
 205              	.LVL13:
  18:Core/Src/motor.c **** 				HAL_GPIO_WritePin(GPIOC, GPIO_BL_Pin, GPIO_PIN_SET);
 206              		.loc 1 18 5 view .LVU29
 207 0020 0122     		movs	r2, #1
 208 0022 8021     		movs	r1, #128
 209 0024 2046     		mov	r0, r4
 210 0026 FFF7FEFF 		bl	HAL_GPIO_WritePin
 211              	.LVL14:
  19:Core/Src/motor.c **** 				HAL_GPIO_WritePin(GPIOC, GPIO_BR_Pin, GPIO_PIN_SET);
 212              		.loc 1 19 5 view .LVU30
 213 002a 0122     		movs	r2, #1
 214 002c 4FF48071 		mov	r1, #256
 215 0030 2046     		mov	r0, r4
 216 0032 FFF7FEFF 		bl	HAL_GPIO_WritePin
 217              	.LVL15:
  20:Core/Src/motor.c **** 				break;
 218              		.loc 1 20 5 view .LVU31
 219 0036 0122     		movs	r2, #1
 220 0038 4FF40071 		mov	r1, #512
 221 003c 2046     		mov	r0, r4
 222 003e FFF7FEFF 		bl	HAL_GPIO_WritePin
 223              	.LVL16:
  21:Core/Src/motor.c **** 		case back_m:
 224              		.loc 1 21 5 view .LVU32
 225              	.L13:
  44:Core/Src/motor.c **** 
 226              		.loc 1 44 2 view .LVU33
 227 0042 FFF7FEFF 		bl	Motor_Init
 228              	.LVL17:
  46:Core/Src/motor.c **** 
 229              		.loc 1 46 1 is_stmt 0 view .LVU34
 230 0046 10BD     		pop	{r4, pc}
 231              	.L17:
  23:Core/Src/motor.c **** 				HAL_GPIO_WritePin(GPIOC, GPIO_FR_Pin, GPIO_PIN_RESET);
 232              		.loc 1 23 5 is_stmt 1 view .LVU35
 233 0048 234C     		ldr	r4, .L20
 234 004a 0022     		movs	r2, #0
 235 004c 4021     		movs	r1, #64
 236 004e 2046     		mov	r0, r4
 237 0050 FFF7FEFF 		bl	HAL_GPIO_WritePin
 238              	.LVL18:
  24:Core/Src/motor.c **** 				HAL_GPIO_WritePin(GPIOC, GPIO_BL_Pin, GPIO_PIN_RESET);
 239              		.loc 1 24 5 view .LVU36
 240 0054 0022     		movs	r2, #0
 241 0056 8021     		movs	r1, #128
 242 0058 2046     		mov	r0, r4
 243 005a FFF7FEFF 		bl	HAL_GPIO_WritePin
 244              	.LVL19:
  25:Core/Src/motor.c **** 				HAL_GPIO_WritePin(GPIOC, GPIO_BR_Pin, GPIO_PIN_RESET);
 245              		.loc 1 25 5 view .LVU37
 246 005e 0022     		movs	r2, #0
 247 0060 4FF48071 		mov	r1, #256
 248 0064 2046     		mov	r0, r4
 249 0066 FFF7FEFF 		bl	HAL_GPIO_WritePin
 250              	.LVL20:
ARM GAS  /tmp/cc0PgZmF.s 			page 7


  26:Core/Src/motor.c **** 				break;
 251              		.loc 1 26 5 view .LVU38
 252 006a 0022     		movs	r2, #0
 253 006c 4FF40071 		mov	r1, #512
 254 0070 2046     		mov	r0, r4
 255 0072 FFF7FEFF 		bl	HAL_GPIO_WritePin
 256              	.LVL21:
  27:Core/Src/motor.c **** 		case left_m:
 257              		.loc 1 27 5 view .LVU39
 258 0076 E4E7     		b	.L13
 259              	.L16:
  29:Core/Src/motor.c **** 				HAL_GPIO_WritePin(GPIOC, GPIO_FR_Pin, GPIO_PIN_SET);
 260              		.loc 1 29 5 view .LVU40
 261 0078 174C     		ldr	r4, .L20
 262 007a 0022     		movs	r2, #0
 263 007c 4021     		movs	r1, #64
 264 007e 2046     		mov	r0, r4
 265 0080 FFF7FEFF 		bl	HAL_GPIO_WritePin
 266              	.LVL22:
  30:Core/Src/motor.c **** 				HAL_GPIO_WritePin(GPIOC, GPIO_BL_Pin, GPIO_PIN_SET);
 267              		.loc 1 30 5 view .LVU41
 268 0084 0122     		movs	r2, #1
 269 0086 8021     		movs	r1, #128
 270 0088 2046     		mov	r0, r4
 271 008a FFF7FEFF 		bl	HAL_GPIO_WritePin
 272              	.LVL23:
  31:Core/Src/motor.c **** 				HAL_GPIO_WritePin(GPIOC, GPIO_BR_Pin, GPIO_PIN_RESET);
 273              		.loc 1 31 5 view .LVU42
 274 008e 0122     		movs	r2, #1
 275 0090 4FF48071 		mov	r1, #256
 276 0094 2046     		mov	r0, r4
 277 0096 FFF7FEFF 		bl	HAL_GPIO_WritePin
 278              	.LVL24:
  32:Core/Src/motor.c **** 				break;
 279              		.loc 1 32 5 view .LVU43
 280 009a 0022     		movs	r2, #0
 281 009c 4FF40071 		mov	r1, #512
 282 00a0 2046     		mov	r0, r4
 283 00a2 FFF7FEFF 		bl	HAL_GPIO_WritePin
 284              	.LVL25:
  33:Core/Src/motor.c **** 		case right_m:
 285              		.loc 1 33 5 view .LVU44
 286 00a6 CCE7     		b	.L13
 287              	.L14:
  35:Core/Src/motor.c **** 				HAL_GPIO_WritePin(GPIOC, GPIO_FR_Pin, GPIO_PIN_RESET);
 288              		.loc 1 35 5 view .LVU45
 289 00a8 0B4C     		ldr	r4, .L20
 290 00aa 0122     		movs	r2, #1
 291 00ac 4021     		movs	r1, #64
 292 00ae 2046     		mov	r0, r4
 293 00b0 FFF7FEFF 		bl	HAL_GPIO_WritePin
 294              	.LVL26:
  36:Core/Src/motor.c **** 				HAL_GPIO_WritePin(GPIOC, GPIO_BL_Pin, GPIO_PIN_RESET);
 295              		.loc 1 36 5 view .LVU46
 296 00b4 0022     		movs	r2, #0
 297 00b6 8021     		movs	r1, #128
 298 00b8 2046     		mov	r0, r4
ARM GAS  /tmp/cc0PgZmF.s 			page 8


 299 00ba FFF7FEFF 		bl	HAL_GPIO_WritePin
 300              	.LVL27:
  37:Core/Src/motor.c **** 				HAL_GPIO_WritePin(GPIOC, GPIO_BR_Pin, GPIO_PIN_SET);
 301              		.loc 1 37 5 view .LVU47
 302 00be 0022     		movs	r2, #0
 303 00c0 4FF48071 		mov	r1, #256
 304 00c4 2046     		mov	r0, r4
 305 00c6 FFF7FEFF 		bl	HAL_GPIO_WritePin
 306              	.LVL28:
  38:Core/Src/motor.c **** 				break;
 307              		.loc 1 38 5 view .LVU48
 308 00ca 0122     		movs	r2, #1
 309 00cc 4FF40071 		mov	r1, #512
 310 00d0 2046     		mov	r0, r4
 311 00d2 FFF7FEFF 		bl	HAL_GPIO_WritePin
 312              	.LVL29:
  39:Core/Src/motor.c **** 		default:
 313              		.loc 1 39 5 view .LVU49
 314 00d6 B4E7     		b	.L13
 315              	.L21:
 316              		.align	2
 317              	.L20:
 318 00d8 00080240 		.word	1073874944
 319              		.cfi_endproc
 320              	.LFE134:
 322              		.global	MotorSpeed
 323              		.section	.data.MotorSpeed,"aw"
 324              		.align	2
 327              	MotorSpeed:
 328 0000 20030000 		.word	800
 329              		.text
 330              	.Letext0:
 331              		.file 2 "/usr/arm-none-eabi/include/machine/_default_types.h"
 332              		.file 3 "/usr/arm-none-eabi/include/sys/_stdint.h"
 333              		.file 4 "Core/Inc/motor.h"
 334              		.file 5 "Drivers/CMSIS/Include/core_cm4.h"
 335              		.file 6 "Drivers/CMSIS/Device/ST/STM32F4xx/Include/system_stm32f4xx.h"
 336              		.file 7 "Drivers/CMSIS/Device/ST/STM32F4xx/Include/stm32f401xc.h"
 337              		.file 8 "Drivers/STM32F4xx_HAL_Driver/Inc/stm32f4xx_hal_def.h"
 338              		.file 9 "Drivers/STM32F4xx_HAL_Driver/Inc/stm32f4xx_hal_gpio.h"
 339              		.file 10 "Drivers/STM32F4xx_HAL_Driver/Inc/stm32f4xx_hal_dma.h"
 340              		.file 11 "Drivers/STM32F4xx_HAL_Driver/Inc/stm32f4xx_hal_tim.h"
 341              		.file 12 "Drivers/STM32F4xx_HAL_Driver/Inc/stm32f4xx_hal.h"
ARM GAS  /tmp/cc0PgZmF.s 			page 9

