ARM GAS  /tmp/ccNyIpV0.s 			page 1


   1              		.cpu cortex-m3
   2              		.eabi_attribute 20, 1
   3              		.eabi_attribute 21, 1
   4              		.eabi_attribute 23, 3
   5              		.eabi_attribute 24, 1
   6              		.eabi_attribute 25, 1
   7              		.eabi_attribute 26, 1
   8              		.eabi_attribute 30, 1
   9              		.eabi_attribute 34, 1
  10              		.eabi_attribute 18, 4
  11              		.file	"stm32f2xx_hal_exti.c"
  12              		.text
  13              	.Ltext0:
  14              		.cfi_sections	.debug_frame
  15              		.section	.text.HAL_EXTI_SetConfigLine,"ax",%progbits
  16              		.align	1
  17              		.global	HAL_EXTI_SetConfigLine
  18              		.arch armv7-m
  19              		.syntax unified
  20              		.thumb
  21              		.thumb_func
  22              		.fpu softvfp
  24              	HAL_EXTI_SetConfigLine:
  25              	.LVL0:
  26              	.LFB72:
  27              		.file 1 "Drivers/STM32F2xx_HAL_Driver/Src/stm32f2xx_hal_exti.c"
   1:Drivers/STM32F2xx_HAL_Driver/Src/stm32f2xx_hal_exti.c **** /**
   2:Drivers/STM32F2xx_HAL_Driver/Src/stm32f2xx_hal_exti.c ****   ******************************************************************************
   3:Drivers/STM32F2xx_HAL_Driver/Src/stm32f2xx_hal_exti.c ****   * @file    stm32f2xx_hal_exti.c
   4:Drivers/STM32F2xx_HAL_Driver/Src/stm32f2xx_hal_exti.c ****   * @author  MCD Application Team
   5:Drivers/STM32F2xx_HAL_Driver/Src/stm32f2xx_hal_exti.c ****   * @brief   EXTI HAL module driver.
   6:Drivers/STM32F2xx_HAL_Driver/Src/stm32f2xx_hal_exti.c ****   *          This file provides firmware functions to manage the following
   7:Drivers/STM32F2xx_HAL_Driver/Src/stm32f2xx_hal_exti.c ****   *          functionalities of the Extended Interrupts and events controller (EXTI) peripheral:
   8:Drivers/STM32F2xx_HAL_Driver/Src/stm32f2xx_hal_exti.c ****   *           + Initialization and de-initialization functions
   9:Drivers/STM32F2xx_HAL_Driver/Src/stm32f2xx_hal_exti.c ****   *           + IO operation functions
  10:Drivers/STM32F2xx_HAL_Driver/Src/stm32f2xx_hal_exti.c ****   *
  11:Drivers/STM32F2xx_HAL_Driver/Src/stm32f2xx_hal_exti.c ****   ******************************************************************************
  12:Drivers/STM32F2xx_HAL_Driver/Src/stm32f2xx_hal_exti.c ****   * @attention
  13:Drivers/STM32F2xx_HAL_Driver/Src/stm32f2xx_hal_exti.c ****   *
  14:Drivers/STM32F2xx_HAL_Driver/Src/stm32f2xx_hal_exti.c ****   * Copyright (c) 2019 STMicroelectronics.
  15:Drivers/STM32F2xx_HAL_Driver/Src/stm32f2xx_hal_exti.c ****   * All rights reserved.
  16:Drivers/STM32F2xx_HAL_Driver/Src/stm32f2xx_hal_exti.c ****   *
  17:Drivers/STM32F2xx_HAL_Driver/Src/stm32f2xx_hal_exti.c ****   * This software is licensed under terms that can be found in the LICENSE file
  18:Drivers/STM32F2xx_HAL_Driver/Src/stm32f2xx_hal_exti.c ****   * in the root directory of this software component.
  19:Drivers/STM32F2xx_HAL_Driver/Src/stm32f2xx_hal_exti.c ****   * If no LICENSE file comes with this software, it is provided AS-IS.
  20:Drivers/STM32F2xx_HAL_Driver/Src/stm32f2xx_hal_exti.c ****   *
  21:Drivers/STM32F2xx_HAL_Driver/Src/stm32f2xx_hal_exti.c ****   ******************************************************************************
  22:Drivers/STM32F2xx_HAL_Driver/Src/stm32f2xx_hal_exti.c ****   @verbatim
  23:Drivers/STM32F2xx_HAL_Driver/Src/stm32f2xx_hal_exti.c ****   ==============================================================================
  24:Drivers/STM32F2xx_HAL_Driver/Src/stm32f2xx_hal_exti.c ****                     ##### EXTI Peripheral features #####
  25:Drivers/STM32F2xx_HAL_Driver/Src/stm32f2xx_hal_exti.c ****   ==============================================================================
  26:Drivers/STM32F2xx_HAL_Driver/Src/stm32f2xx_hal_exti.c ****   [..]
  27:Drivers/STM32F2xx_HAL_Driver/Src/stm32f2xx_hal_exti.c ****     (+) Each Exti line can be configured within this driver.
  28:Drivers/STM32F2xx_HAL_Driver/Src/stm32f2xx_hal_exti.c **** 
  29:Drivers/STM32F2xx_HAL_Driver/Src/stm32f2xx_hal_exti.c ****     (+) Exti line can be configured in 3 different modes
  30:Drivers/STM32F2xx_HAL_Driver/Src/stm32f2xx_hal_exti.c ****         (++) Interrupt
  31:Drivers/STM32F2xx_HAL_Driver/Src/stm32f2xx_hal_exti.c ****         (++) Event
ARM GAS  /tmp/ccNyIpV0.s 			page 2


  32:Drivers/STM32F2xx_HAL_Driver/Src/stm32f2xx_hal_exti.c ****         (++) Both of them
  33:Drivers/STM32F2xx_HAL_Driver/Src/stm32f2xx_hal_exti.c **** 
  34:Drivers/STM32F2xx_HAL_Driver/Src/stm32f2xx_hal_exti.c ****     (+) Configurable Exti lines can be configured with 3 different triggers
  35:Drivers/STM32F2xx_HAL_Driver/Src/stm32f2xx_hal_exti.c ****         (++) Rising
  36:Drivers/STM32F2xx_HAL_Driver/Src/stm32f2xx_hal_exti.c ****         (++) Falling
  37:Drivers/STM32F2xx_HAL_Driver/Src/stm32f2xx_hal_exti.c ****         (++) Both of them
  38:Drivers/STM32F2xx_HAL_Driver/Src/stm32f2xx_hal_exti.c **** 
  39:Drivers/STM32F2xx_HAL_Driver/Src/stm32f2xx_hal_exti.c ****     (+) When set in interrupt mode, configurable Exti lines have two different
  40:Drivers/STM32F2xx_HAL_Driver/Src/stm32f2xx_hal_exti.c ****         interrupts pending registers which allow to distinguish which transition
  41:Drivers/STM32F2xx_HAL_Driver/Src/stm32f2xx_hal_exti.c ****         occurs:
  42:Drivers/STM32F2xx_HAL_Driver/Src/stm32f2xx_hal_exti.c ****         (++) Rising edge pending interrupt
  43:Drivers/STM32F2xx_HAL_Driver/Src/stm32f2xx_hal_exti.c ****         (++) Falling
  44:Drivers/STM32F2xx_HAL_Driver/Src/stm32f2xx_hal_exti.c **** 
  45:Drivers/STM32F2xx_HAL_Driver/Src/stm32f2xx_hal_exti.c ****     (+) Exti lines 0 to 15 are linked to gpio pin number 0 to 15. Gpio port can
  46:Drivers/STM32F2xx_HAL_Driver/Src/stm32f2xx_hal_exti.c ****         be selected through multiplexer.
  47:Drivers/STM32F2xx_HAL_Driver/Src/stm32f2xx_hal_exti.c **** 
  48:Drivers/STM32F2xx_HAL_Driver/Src/stm32f2xx_hal_exti.c ****                      ##### How to use this driver #####
  49:Drivers/STM32F2xx_HAL_Driver/Src/stm32f2xx_hal_exti.c ****   ==============================================================================
  50:Drivers/STM32F2xx_HAL_Driver/Src/stm32f2xx_hal_exti.c ****   [..]
  51:Drivers/STM32F2xx_HAL_Driver/Src/stm32f2xx_hal_exti.c **** 
  52:Drivers/STM32F2xx_HAL_Driver/Src/stm32f2xx_hal_exti.c ****     (#) Configure the EXTI line using HAL_EXTI_SetConfigLine().
  53:Drivers/STM32F2xx_HAL_Driver/Src/stm32f2xx_hal_exti.c ****         (++) Choose the interrupt line number by setting "Line" member from
  54:Drivers/STM32F2xx_HAL_Driver/Src/stm32f2xx_hal_exti.c ****              EXTI_ConfigTypeDef structure.
  55:Drivers/STM32F2xx_HAL_Driver/Src/stm32f2xx_hal_exti.c ****         (++) Configure the interrupt and/or event mode using "Mode" member from
  56:Drivers/STM32F2xx_HAL_Driver/Src/stm32f2xx_hal_exti.c ****              EXTI_ConfigTypeDef structure.
  57:Drivers/STM32F2xx_HAL_Driver/Src/stm32f2xx_hal_exti.c ****         (++) For configurable lines, configure rising and/or falling trigger
  58:Drivers/STM32F2xx_HAL_Driver/Src/stm32f2xx_hal_exti.c ****              "Trigger" member from EXTI_ConfigTypeDef structure.
  59:Drivers/STM32F2xx_HAL_Driver/Src/stm32f2xx_hal_exti.c ****         (++) For Exti lines linked to gpio, choose gpio port using "GPIOSel"
  60:Drivers/STM32F2xx_HAL_Driver/Src/stm32f2xx_hal_exti.c ****              member from GPIO_InitTypeDef structure.
  61:Drivers/STM32F2xx_HAL_Driver/Src/stm32f2xx_hal_exti.c **** 
  62:Drivers/STM32F2xx_HAL_Driver/Src/stm32f2xx_hal_exti.c ****     (#) Get current Exti configuration of a dedicated line using
  63:Drivers/STM32F2xx_HAL_Driver/Src/stm32f2xx_hal_exti.c ****         HAL_EXTI_GetConfigLine().
  64:Drivers/STM32F2xx_HAL_Driver/Src/stm32f2xx_hal_exti.c ****         (++) Provide exiting handle as parameter.
  65:Drivers/STM32F2xx_HAL_Driver/Src/stm32f2xx_hal_exti.c ****         (++) Provide pointer on EXTI_ConfigTypeDef structure as second parameter.
  66:Drivers/STM32F2xx_HAL_Driver/Src/stm32f2xx_hal_exti.c **** 
  67:Drivers/STM32F2xx_HAL_Driver/Src/stm32f2xx_hal_exti.c ****     (#) Clear Exti configuration of a dedicated line using HAL_EXTI_ClearConfigLine().
  68:Drivers/STM32F2xx_HAL_Driver/Src/stm32f2xx_hal_exti.c ****         (++) Provide exiting handle as parameter.
  69:Drivers/STM32F2xx_HAL_Driver/Src/stm32f2xx_hal_exti.c **** 
  70:Drivers/STM32F2xx_HAL_Driver/Src/stm32f2xx_hal_exti.c ****     (#) Register callback to treat Exti interrupts using HAL_EXTI_RegisterCallback().
  71:Drivers/STM32F2xx_HAL_Driver/Src/stm32f2xx_hal_exti.c ****         (++) Provide exiting handle as first parameter.
  72:Drivers/STM32F2xx_HAL_Driver/Src/stm32f2xx_hal_exti.c ****         (++) Provide which callback will be registered using one value from
  73:Drivers/STM32F2xx_HAL_Driver/Src/stm32f2xx_hal_exti.c ****              EXTI_CallbackIDTypeDef.
  74:Drivers/STM32F2xx_HAL_Driver/Src/stm32f2xx_hal_exti.c ****         (++) Provide callback function pointer.
  75:Drivers/STM32F2xx_HAL_Driver/Src/stm32f2xx_hal_exti.c **** 
  76:Drivers/STM32F2xx_HAL_Driver/Src/stm32f2xx_hal_exti.c ****     (#) Get interrupt pending bit using HAL_EXTI_GetPending().
  77:Drivers/STM32F2xx_HAL_Driver/Src/stm32f2xx_hal_exti.c **** 
  78:Drivers/STM32F2xx_HAL_Driver/Src/stm32f2xx_hal_exti.c ****     (#) Clear interrupt pending bit using HAL_EXTI_ClearPending().
  79:Drivers/STM32F2xx_HAL_Driver/Src/stm32f2xx_hal_exti.c **** 
  80:Drivers/STM32F2xx_HAL_Driver/Src/stm32f2xx_hal_exti.c ****     (#) Generate software interrupt using HAL_EXTI_GenerateSWI().
  81:Drivers/STM32F2xx_HAL_Driver/Src/stm32f2xx_hal_exti.c **** 
  82:Drivers/STM32F2xx_HAL_Driver/Src/stm32f2xx_hal_exti.c ****   @endverbatim
  83:Drivers/STM32F2xx_HAL_Driver/Src/stm32f2xx_hal_exti.c ****   ******************************************************************************
  84:Drivers/STM32F2xx_HAL_Driver/Src/stm32f2xx_hal_exti.c ****   */
  85:Drivers/STM32F2xx_HAL_Driver/Src/stm32f2xx_hal_exti.c **** 
  86:Drivers/STM32F2xx_HAL_Driver/Src/stm32f2xx_hal_exti.c **** /* Includes ------------------------------------------------------------------*/
  87:Drivers/STM32F2xx_HAL_Driver/Src/stm32f2xx_hal_exti.c **** #include "stm32f2xx_hal.h"
  88:Drivers/STM32F2xx_HAL_Driver/Src/stm32f2xx_hal_exti.c **** 
ARM GAS  /tmp/ccNyIpV0.s 			page 3


  89:Drivers/STM32F2xx_HAL_Driver/Src/stm32f2xx_hal_exti.c **** /** @addtogroup STM32F2xx_HAL_Driver
  90:Drivers/STM32F2xx_HAL_Driver/Src/stm32f2xx_hal_exti.c ****   * @{
  91:Drivers/STM32F2xx_HAL_Driver/Src/stm32f2xx_hal_exti.c ****   */
  92:Drivers/STM32F2xx_HAL_Driver/Src/stm32f2xx_hal_exti.c **** 
  93:Drivers/STM32F2xx_HAL_Driver/Src/stm32f2xx_hal_exti.c **** /** @addtogroup EXTI
  94:Drivers/STM32F2xx_HAL_Driver/Src/stm32f2xx_hal_exti.c ****   * @{
  95:Drivers/STM32F2xx_HAL_Driver/Src/stm32f2xx_hal_exti.c ****   */
  96:Drivers/STM32F2xx_HAL_Driver/Src/stm32f2xx_hal_exti.c **** /** MISRA C:2012 deviation rule has been granted for following rule:
  97:Drivers/STM32F2xx_HAL_Driver/Src/stm32f2xx_hal_exti.c ****   * Rule-18.1_b - Medium: Array `EXTICR' 1st subscript interval [0,7] may be out
  98:Drivers/STM32F2xx_HAL_Driver/Src/stm32f2xx_hal_exti.c ****   * of bounds [0,3] in following API :
  99:Drivers/STM32F2xx_HAL_Driver/Src/stm32f2xx_hal_exti.c ****   * HAL_EXTI_SetConfigLine
 100:Drivers/STM32F2xx_HAL_Driver/Src/stm32f2xx_hal_exti.c ****   * HAL_EXTI_GetConfigLine
 101:Drivers/STM32F2xx_HAL_Driver/Src/stm32f2xx_hal_exti.c ****   * HAL_EXTI_ClearConfigLine
 102:Drivers/STM32F2xx_HAL_Driver/Src/stm32f2xx_hal_exti.c ****   */
 103:Drivers/STM32F2xx_HAL_Driver/Src/stm32f2xx_hal_exti.c **** 
 104:Drivers/STM32F2xx_HAL_Driver/Src/stm32f2xx_hal_exti.c **** #ifdef HAL_EXTI_MODULE_ENABLED
 105:Drivers/STM32F2xx_HAL_Driver/Src/stm32f2xx_hal_exti.c **** 
 106:Drivers/STM32F2xx_HAL_Driver/Src/stm32f2xx_hal_exti.c **** /* Private typedef -----------------------------------------------------------*/
 107:Drivers/STM32F2xx_HAL_Driver/Src/stm32f2xx_hal_exti.c **** /* Private defines -----------------------------------------------------------*/
 108:Drivers/STM32F2xx_HAL_Driver/Src/stm32f2xx_hal_exti.c **** /** @defgroup EXTI_Private_Constants EXTI Private Constants
 109:Drivers/STM32F2xx_HAL_Driver/Src/stm32f2xx_hal_exti.c ****   * @{
 110:Drivers/STM32F2xx_HAL_Driver/Src/stm32f2xx_hal_exti.c ****   */
 111:Drivers/STM32F2xx_HAL_Driver/Src/stm32f2xx_hal_exti.c **** 
 112:Drivers/STM32F2xx_HAL_Driver/Src/stm32f2xx_hal_exti.c **** /**
 113:Drivers/STM32F2xx_HAL_Driver/Src/stm32f2xx_hal_exti.c ****   * @}
 114:Drivers/STM32F2xx_HAL_Driver/Src/stm32f2xx_hal_exti.c ****   */
 115:Drivers/STM32F2xx_HAL_Driver/Src/stm32f2xx_hal_exti.c **** 
 116:Drivers/STM32F2xx_HAL_Driver/Src/stm32f2xx_hal_exti.c **** /* Private macros ------------------------------------------------------------*/
 117:Drivers/STM32F2xx_HAL_Driver/Src/stm32f2xx_hal_exti.c **** /* Private variables ---------------------------------------------------------*/
 118:Drivers/STM32F2xx_HAL_Driver/Src/stm32f2xx_hal_exti.c **** /* Private function prototypes -----------------------------------------------*/
 119:Drivers/STM32F2xx_HAL_Driver/Src/stm32f2xx_hal_exti.c **** /* Exported functions --------------------------------------------------------*/
 120:Drivers/STM32F2xx_HAL_Driver/Src/stm32f2xx_hal_exti.c **** 
 121:Drivers/STM32F2xx_HAL_Driver/Src/stm32f2xx_hal_exti.c **** /** @addtogroup EXTI_Exported_Functions
 122:Drivers/STM32F2xx_HAL_Driver/Src/stm32f2xx_hal_exti.c ****   * @{
 123:Drivers/STM32F2xx_HAL_Driver/Src/stm32f2xx_hal_exti.c ****   */
 124:Drivers/STM32F2xx_HAL_Driver/Src/stm32f2xx_hal_exti.c **** 
 125:Drivers/STM32F2xx_HAL_Driver/Src/stm32f2xx_hal_exti.c **** /** @addtogroup EXTI_Exported_Functions_Group1
 126:Drivers/STM32F2xx_HAL_Driver/Src/stm32f2xx_hal_exti.c ****   *  @brief    Configuration functions
 127:Drivers/STM32F2xx_HAL_Driver/Src/stm32f2xx_hal_exti.c ****   *
 128:Drivers/STM32F2xx_HAL_Driver/Src/stm32f2xx_hal_exti.c **** @verbatim
 129:Drivers/STM32F2xx_HAL_Driver/Src/stm32f2xx_hal_exti.c ****  ===============================================================================
 130:Drivers/STM32F2xx_HAL_Driver/Src/stm32f2xx_hal_exti.c ****               ##### Configuration functions #####
 131:Drivers/STM32F2xx_HAL_Driver/Src/stm32f2xx_hal_exti.c ****  ===============================================================================
 132:Drivers/STM32F2xx_HAL_Driver/Src/stm32f2xx_hal_exti.c **** 
 133:Drivers/STM32F2xx_HAL_Driver/Src/stm32f2xx_hal_exti.c **** @endverbatim
 134:Drivers/STM32F2xx_HAL_Driver/Src/stm32f2xx_hal_exti.c ****   * @{
 135:Drivers/STM32F2xx_HAL_Driver/Src/stm32f2xx_hal_exti.c ****   */
 136:Drivers/STM32F2xx_HAL_Driver/Src/stm32f2xx_hal_exti.c **** 
 137:Drivers/STM32F2xx_HAL_Driver/Src/stm32f2xx_hal_exti.c **** /**
 138:Drivers/STM32F2xx_HAL_Driver/Src/stm32f2xx_hal_exti.c ****   * @brief  Set configuration of a dedicated Exti line.
 139:Drivers/STM32F2xx_HAL_Driver/Src/stm32f2xx_hal_exti.c ****   * @param  hexti Exti handle.
 140:Drivers/STM32F2xx_HAL_Driver/Src/stm32f2xx_hal_exti.c ****   * @param  pExtiConfig Pointer on EXTI configuration to be set.
 141:Drivers/STM32F2xx_HAL_Driver/Src/stm32f2xx_hal_exti.c ****   * @retval HAL Status.
 142:Drivers/STM32F2xx_HAL_Driver/Src/stm32f2xx_hal_exti.c ****   */
 143:Drivers/STM32F2xx_HAL_Driver/Src/stm32f2xx_hal_exti.c **** HAL_StatusTypeDef HAL_EXTI_SetConfigLine(EXTI_HandleTypeDef *hexti, EXTI_ConfigTypeDef *pExtiConfig
 144:Drivers/STM32F2xx_HAL_Driver/Src/stm32f2xx_hal_exti.c **** {
  28              		.loc 1 144 1 view -0
ARM GAS  /tmp/ccNyIpV0.s 			page 4


  29              		.cfi_startproc
  30              		@ args = 0, pretend = 0, frame = 0
  31              		@ frame_needed = 0, uses_anonymous_args = 0
  32              		@ link register save eliminated.
 145:Drivers/STM32F2xx_HAL_Driver/Src/stm32f2xx_hal_exti.c ****   uint32_t regval;
  33              		.loc 1 145 3 view .LVU1
 146:Drivers/STM32F2xx_HAL_Driver/Src/stm32f2xx_hal_exti.c ****   uint32_t linepos;
  34              		.loc 1 146 3 view .LVU2
 147:Drivers/STM32F2xx_HAL_Driver/Src/stm32f2xx_hal_exti.c ****   uint32_t maskline;
  35              		.loc 1 147 3 view .LVU3
 148:Drivers/STM32F2xx_HAL_Driver/Src/stm32f2xx_hal_exti.c **** 
 149:Drivers/STM32F2xx_HAL_Driver/Src/stm32f2xx_hal_exti.c ****   /* Check null pointer */
 150:Drivers/STM32F2xx_HAL_Driver/Src/stm32f2xx_hal_exti.c ****   if ((hexti == NULL) || (pExtiConfig == NULL))
  36              		.loc 1 150 3 view .LVU4
  37              		.loc 1 150 6 is_stmt 0 view .LVU5
  38 0000 0028     		cmp	r0, #0
  39 0002 60D0     		beq	.L11
  40              		.loc 1 150 23 discriminator 1 view .LVU6
  41 0004 0029     		cmp	r1, #0
  42 0006 60D0     		beq	.L12
 144:Drivers/STM32F2xx_HAL_Driver/Src/stm32f2xx_hal_exti.c ****   uint32_t regval;
  43              		.loc 1 144 1 view .LVU7
  44 0008 70B4     		push	{r4, r5, r6}
  45              	.LCFI0:
  46              		.cfi_def_cfa_offset 12
  47              		.cfi_offset 4, -12
  48              		.cfi_offset 5, -8
  49              		.cfi_offset 6, -4
 151:Drivers/STM32F2xx_HAL_Driver/Src/stm32f2xx_hal_exti.c ****   {
 152:Drivers/STM32F2xx_HAL_Driver/Src/stm32f2xx_hal_exti.c ****     return HAL_ERROR;
 153:Drivers/STM32F2xx_HAL_Driver/Src/stm32f2xx_hal_exti.c ****   }
 154:Drivers/STM32F2xx_HAL_Driver/Src/stm32f2xx_hal_exti.c **** 
 155:Drivers/STM32F2xx_HAL_Driver/Src/stm32f2xx_hal_exti.c ****   /* Check parameters */
 156:Drivers/STM32F2xx_HAL_Driver/Src/stm32f2xx_hal_exti.c ****   assert_param(IS_EXTI_LINE(pExtiConfig->Line));
  50              		.loc 1 156 3 is_stmt 1 view .LVU8
 157:Drivers/STM32F2xx_HAL_Driver/Src/stm32f2xx_hal_exti.c ****   assert_param(IS_EXTI_MODE(pExtiConfig->Mode));
  51              		.loc 1 157 3 view .LVU9
 158:Drivers/STM32F2xx_HAL_Driver/Src/stm32f2xx_hal_exti.c **** 
 159:Drivers/STM32F2xx_HAL_Driver/Src/stm32f2xx_hal_exti.c ****   /* Assign line number to handle */
 160:Drivers/STM32F2xx_HAL_Driver/Src/stm32f2xx_hal_exti.c ****   hexti->Line = pExtiConfig->Line;
  52              		.loc 1 160 3 view .LVU10
  53              		.loc 1 160 28 is_stmt 0 view .LVU11
  54 000a 0A68     		ldr	r2, [r1]
  55              		.loc 1 160 15 view .LVU12
  56 000c 0260     		str	r2, [r0]
 161:Drivers/STM32F2xx_HAL_Driver/Src/stm32f2xx_hal_exti.c **** 
 162:Drivers/STM32F2xx_HAL_Driver/Src/stm32f2xx_hal_exti.c ****   /* Compute line mask */
 163:Drivers/STM32F2xx_HAL_Driver/Src/stm32f2xx_hal_exti.c ****   linepos = (pExtiConfig->Line & EXTI_PIN_MASK);
  57              		.loc 1 163 3 is_stmt 1 view .LVU13
  58              		.loc 1 163 11 is_stmt 0 view .LVU14
  59 000e 02F01F00 		and	r0, r2, #31
  60              	.LVL1:
 164:Drivers/STM32F2xx_HAL_Driver/Src/stm32f2xx_hal_exti.c ****   maskline = (1uL << linepos);
  61              		.loc 1 164 3 is_stmt 1 view .LVU15
  62              		.loc 1 164 12 is_stmt 0 view .LVU16
  63 0012 0123     		movs	r3, #1
  64 0014 8340     		lsls	r3, r3, r0
ARM GAS  /tmp/ccNyIpV0.s 			page 5


  65              	.LVL2:
 165:Drivers/STM32F2xx_HAL_Driver/Src/stm32f2xx_hal_exti.c **** 
 166:Drivers/STM32F2xx_HAL_Driver/Src/stm32f2xx_hal_exti.c ****   /* Configure triggers for configurable lines */
 167:Drivers/STM32F2xx_HAL_Driver/Src/stm32f2xx_hal_exti.c ****   if ((pExtiConfig->Line & EXTI_CONFIG) != 0x00u)
  66              		.loc 1 167 3 is_stmt 1 view .LVU17
  67              		.loc 1 167 6 is_stmt 0 view .LVU18
  68 0016 12F0007F 		tst	r2, #33554432
  69 001a 15D0     		beq	.L3
 168:Drivers/STM32F2xx_HAL_Driver/Src/stm32f2xx_hal_exti.c ****   {
 169:Drivers/STM32F2xx_HAL_Driver/Src/stm32f2xx_hal_exti.c ****     assert_param(IS_EXTI_TRIGGER(pExtiConfig->Trigger));
  70              		.loc 1 169 5 is_stmt 1 view .LVU19
 170:Drivers/STM32F2xx_HAL_Driver/Src/stm32f2xx_hal_exti.c **** 
 171:Drivers/STM32F2xx_HAL_Driver/Src/stm32f2xx_hal_exti.c ****     /* Configure rising trigger */
 172:Drivers/STM32F2xx_HAL_Driver/Src/stm32f2xx_hal_exti.c ****     /* Mask or set line */
 173:Drivers/STM32F2xx_HAL_Driver/Src/stm32f2xx_hal_exti.c ****     if ((pExtiConfig->Trigger & EXTI_TRIGGER_RISING) != 0x00u)
  71              		.loc 1 173 5 view .LVU20
  72              		.loc 1 173 21 is_stmt 0 view .LVU21
  73 001c 8C68     		ldr	r4, [r1, #8]
  74              		.loc 1 173 8 view .LVU22
  75 001e 14F0010F 		tst	r4, #1
  76 0022 24D0     		beq	.L4
 174:Drivers/STM32F2xx_HAL_Driver/Src/stm32f2xx_hal_exti.c ****     {
 175:Drivers/STM32F2xx_HAL_Driver/Src/stm32f2xx_hal_exti.c ****       EXTI->RTSR |= maskline;
  77              		.loc 1 175 7 is_stmt 1 view .LVU23
  78              		.loc 1 175 18 is_stmt 0 view .LVU24
  79 0024 2A4D     		ldr	r5, .L18
  80 0026 AC68     		ldr	r4, [r5, #8]
  81 0028 1C43     		orrs	r4, r4, r3
  82 002a AC60     		str	r4, [r5, #8]
  83              	.L5:
 176:Drivers/STM32F2xx_HAL_Driver/Src/stm32f2xx_hal_exti.c ****     }
 177:Drivers/STM32F2xx_HAL_Driver/Src/stm32f2xx_hal_exti.c ****     else
 178:Drivers/STM32F2xx_HAL_Driver/Src/stm32f2xx_hal_exti.c ****     {
 179:Drivers/STM32F2xx_HAL_Driver/Src/stm32f2xx_hal_exti.c ****       EXTI->RTSR &= ~maskline;
 180:Drivers/STM32F2xx_HAL_Driver/Src/stm32f2xx_hal_exti.c ****     }
 181:Drivers/STM32F2xx_HAL_Driver/Src/stm32f2xx_hal_exti.c **** 
 182:Drivers/STM32F2xx_HAL_Driver/Src/stm32f2xx_hal_exti.c ****     /* Configure falling trigger */
 183:Drivers/STM32F2xx_HAL_Driver/Src/stm32f2xx_hal_exti.c ****     /* Mask or set line */
 184:Drivers/STM32F2xx_HAL_Driver/Src/stm32f2xx_hal_exti.c ****     if ((pExtiConfig->Trigger & EXTI_TRIGGER_FALLING) != 0x00u)
  84              		.loc 1 184 5 is_stmt 1 view .LVU25
  85              		.loc 1 184 21 is_stmt 0 view .LVU26
  86 002c 8C68     		ldr	r4, [r1, #8]
  87              		.loc 1 184 8 view .LVU27
  88 002e 14F0020F 		tst	r4, #2
  89 0032 22D0     		beq	.L6
 185:Drivers/STM32F2xx_HAL_Driver/Src/stm32f2xx_hal_exti.c ****     {
 186:Drivers/STM32F2xx_HAL_Driver/Src/stm32f2xx_hal_exti.c ****       EXTI->FTSR |= maskline;
  90              		.loc 1 186 7 is_stmt 1 view .LVU28
  91              		.loc 1 186 18 is_stmt 0 view .LVU29
  92 0034 264D     		ldr	r5, .L18
  93 0036 EC68     		ldr	r4, [r5, #12]
  94 0038 1C43     		orrs	r4, r4, r3
  95 003a EC60     		str	r4, [r5, #12]
  96              	.L7:
 187:Drivers/STM32F2xx_HAL_Driver/Src/stm32f2xx_hal_exti.c ****     }
 188:Drivers/STM32F2xx_HAL_Driver/Src/stm32f2xx_hal_exti.c ****     else
 189:Drivers/STM32F2xx_HAL_Driver/Src/stm32f2xx_hal_exti.c ****     {
ARM GAS  /tmp/ccNyIpV0.s 			page 6


 190:Drivers/STM32F2xx_HAL_Driver/Src/stm32f2xx_hal_exti.c ****       EXTI->FTSR &= ~maskline;
 191:Drivers/STM32F2xx_HAL_Driver/Src/stm32f2xx_hal_exti.c ****     }
 192:Drivers/STM32F2xx_HAL_Driver/Src/stm32f2xx_hal_exti.c **** 
 193:Drivers/STM32F2xx_HAL_Driver/Src/stm32f2xx_hal_exti.c **** 
 194:Drivers/STM32F2xx_HAL_Driver/Src/stm32f2xx_hal_exti.c ****     /* Configure gpio port selection in case of gpio exti line */
 195:Drivers/STM32F2xx_HAL_Driver/Src/stm32f2xx_hal_exti.c ****     if ((pExtiConfig->Line & EXTI_GPIO) == EXTI_GPIO)
  97              		.loc 1 195 5 is_stmt 1 view .LVU30
  98              		.loc 1 195 21 is_stmt 0 view .LVU31
  99 003c 0C68     		ldr	r4, [r1]
 100              		.loc 1 195 28 view .LVU32
 101 003e 04F0C064 		and	r4, r4, #100663296
 102              		.loc 1 195 8 view .LVU33
 103 0042 B4F1C06F 		cmp	r4, #100663296
 104 0046 1ED0     		beq	.L17
 105              	.LVL3:
 106              	.L3:
 196:Drivers/STM32F2xx_HAL_Driver/Src/stm32f2xx_hal_exti.c ****     {
 197:Drivers/STM32F2xx_HAL_Driver/Src/stm32f2xx_hal_exti.c ****       assert_param(IS_EXTI_GPIO_PORT(pExtiConfig->GPIOSel));
 198:Drivers/STM32F2xx_HAL_Driver/Src/stm32f2xx_hal_exti.c ****       assert_param(IS_EXTI_GPIO_PIN(linepos));
 199:Drivers/STM32F2xx_HAL_Driver/Src/stm32f2xx_hal_exti.c **** 
 200:Drivers/STM32F2xx_HAL_Driver/Src/stm32f2xx_hal_exti.c ****       regval = SYSCFG->EXTICR[linepos >> 2u];
 201:Drivers/STM32F2xx_HAL_Driver/Src/stm32f2xx_hal_exti.c ****       regval &= ~(SYSCFG_EXTICR1_EXTI0 << (SYSCFG_EXTICR1_EXTI1_Pos * (linepos & 0x03u)));
 202:Drivers/STM32F2xx_HAL_Driver/Src/stm32f2xx_hal_exti.c ****       regval |= (pExtiConfig->GPIOSel << (SYSCFG_EXTICR1_EXTI1_Pos * (linepos & 0x03u)));
 203:Drivers/STM32F2xx_HAL_Driver/Src/stm32f2xx_hal_exti.c ****       SYSCFG->EXTICR[linepos >> 2u] = regval;
 204:Drivers/STM32F2xx_HAL_Driver/Src/stm32f2xx_hal_exti.c ****     }
 205:Drivers/STM32F2xx_HAL_Driver/Src/stm32f2xx_hal_exti.c ****   }
 206:Drivers/STM32F2xx_HAL_Driver/Src/stm32f2xx_hal_exti.c **** 
 207:Drivers/STM32F2xx_HAL_Driver/Src/stm32f2xx_hal_exti.c ****   /* Configure interrupt mode : read current mode */
 208:Drivers/STM32F2xx_HAL_Driver/Src/stm32f2xx_hal_exti.c ****   /* Mask or set line */
 209:Drivers/STM32F2xx_HAL_Driver/Src/stm32f2xx_hal_exti.c ****   if ((pExtiConfig->Mode & EXTI_MODE_INTERRUPT) != 0x00u)
 107              		.loc 1 209 3 is_stmt 1 view .LVU34
 108              		.loc 1 209 19 is_stmt 0 view .LVU35
 109 0048 4A68     		ldr	r2, [r1, #4]
 110              		.loc 1 209 6 view .LVU36
 111 004a 12F0010F 		tst	r2, #1
 112 004e 2DD0     		beq	.L8
 210:Drivers/STM32F2xx_HAL_Driver/Src/stm32f2xx_hal_exti.c ****   {
 211:Drivers/STM32F2xx_HAL_Driver/Src/stm32f2xx_hal_exti.c ****     EXTI->IMR |= maskline;
 113              		.loc 1 211 5 is_stmt 1 view .LVU37
 114              		.loc 1 211 15 is_stmt 0 view .LVU38
 115 0050 1F48     		ldr	r0, .L18
 116 0052 0268     		ldr	r2, [r0]
 117 0054 1A43     		orrs	r2, r2, r3
 118 0056 0260     		str	r2, [r0]
 119              	.L9:
 212:Drivers/STM32F2xx_HAL_Driver/Src/stm32f2xx_hal_exti.c ****   }
 213:Drivers/STM32F2xx_HAL_Driver/Src/stm32f2xx_hal_exti.c ****   else
 214:Drivers/STM32F2xx_HAL_Driver/Src/stm32f2xx_hal_exti.c ****   {
 215:Drivers/STM32F2xx_HAL_Driver/Src/stm32f2xx_hal_exti.c ****     EXTI->IMR &= ~maskline;
 216:Drivers/STM32F2xx_HAL_Driver/Src/stm32f2xx_hal_exti.c ****   }
 217:Drivers/STM32F2xx_HAL_Driver/Src/stm32f2xx_hal_exti.c **** 
 218:Drivers/STM32F2xx_HAL_Driver/Src/stm32f2xx_hal_exti.c ****   /* Configure event mode : read current mode */
 219:Drivers/STM32F2xx_HAL_Driver/Src/stm32f2xx_hal_exti.c ****   /* Mask or set line */
 220:Drivers/STM32F2xx_HAL_Driver/Src/stm32f2xx_hal_exti.c ****   if ((pExtiConfig->Mode & EXTI_MODE_EVENT) != 0x00u)
 120              		.loc 1 220 3 is_stmt 1 view .LVU39
 121              		.loc 1 220 19 is_stmt 0 view .LVU40
 122 0058 4A68     		ldr	r2, [r1, #4]
ARM GAS  /tmp/ccNyIpV0.s 			page 7


 123              		.loc 1 220 6 view .LVU41
 124 005a 12F0020F 		tst	r2, #2
 125 005e 2BD0     		beq	.L10
 221:Drivers/STM32F2xx_HAL_Driver/Src/stm32f2xx_hal_exti.c ****   {
 222:Drivers/STM32F2xx_HAL_Driver/Src/stm32f2xx_hal_exti.c ****     EXTI->EMR |= maskline;
 126              		.loc 1 222 5 is_stmt 1 view .LVU42
 127              		.loc 1 222 15 is_stmt 0 view .LVU43
 128 0060 1B49     		ldr	r1, .L18
 129              	.LVL4:
 130              		.loc 1 222 15 view .LVU44
 131 0062 4A68     		ldr	r2, [r1, #4]
 132 0064 1343     		orrs	r3, r3, r2
 133              	.LVL5:
 134              		.loc 1 222 15 view .LVU45
 135 0066 4B60     		str	r3, [r1, #4]
 223:Drivers/STM32F2xx_HAL_Driver/Src/stm32f2xx_hal_exti.c ****   }
 224:Drivers/STM32F2xx_HAL_Driver/Src/stm32f2xx_hal_exti.c ****   else
 225:Drivers/STM32F2xx_HAL_Driver/Src/stm32f2xx_hal_exti.c ****   {
 226:Drivers/STM32F2xx_HAL_Driver/Src/stm32f2xx_hal_exti.c ****     EXTI->EMR &= ~maskline;
 227:Drivers/STM32F2xx_HAL_Driver/Src/stm32f2xx_hal_exti.c ****   }
 228:Drivers/STM32F2xx_HAL_Driver/Src/stm32f2xx_hal_exti.c **** 
 229:Drivers/STM32F2xx_HAL_Driver/Src/stm32f2xx_hal_exti.c ****   return HAL_OK;
 136              		.loc 1 229 10 view .LVU46
 137 0068 0020     		movs	r0, #0
 138              	.L2:
 230:Drivers/STM32F2xx_HAL_Driver/Src/stm32f2xx_hal_exti.c **** }
 139              		.loc 1 230 1 view .LVU47
 140 006a 70BC     		pop	{r4, r5, r6}
 141              	.LCFI1:
 142              		.cfi_remember_state
 143              		.cfi_restore 6
 144              		.cfi_restore 5
 145              		.cfi_restore 4
 146              		.cfi_def_cfa_offset 0
 147 006c 7047     		bx	lr
 148              	.LVL6:
 149              	.L4:
 150              	.LCFI2:
 151              		.cfi_restore_state
 179:Drivers/STM32F2xx_HAL_Driver/Src/stm32f2xx_hal_exti.c ****     }
 152              		.loc 1 179 7 is_stmt 1 view .LVU48
 179:Drivers/STM32F2xx_HAL_Driver/Src/stm32f2xx_hal_exti.c ****     }
 153              		.loc 1 179 18 is_stmt 0 view .LVU49
 154 006e 184D     		ldr	r5, .L18
 155 0070 AC68     		ldr	r4, [r5, #8]
 156 0072 24EA0304 		bic	r4, r4, r3
 157 0076 AC60     		str	r4, [r5, #8]
 158 0078 D8E7     		b	.L5
 159              	.L6:
 190:Drivers/STM32F2xx_HAL_Driver/Src/stm32f2xx_hal_exti.c ****     }
 160              		.loc 1 190 7 is_stmt 1 view .LVU50
 190:Drivers/STM32F2xx_HAL_Driver/Src/stm32f2xx_hal_exti.c ****     }
 161              		.loc 1 190 18 is_stmt 0 view .LVU51
 162 007a 154D     		ldr	r5, .L18
 163 007c EC68     		ldr	r4, [r5, #12]
 164 007e 24EA0304 		bic	r4, r4, r3
 165 0082 EC60     		str	r4, [r5, #12]
ARM GAS  /tmp/ccNyIpV0.s 			page 8


 166 0084 DAE7     		b	.L7
 167              	.L17:
 197:Drivers/STM32F2xx_HAL_Driver/Src/stm32f2xx_hal_exti.c ****       assert_param(IS_EXTI_GPIO_PIN(linepos));
 168              		.loc 1 197 7 is_stmt 1 view .LVU52
 198:Drivers/STM32F2xx_HAL_Driver/Src/stm32f2xx_hal_exti.c **** 
 169              		.loc 1 198 7 view .LVU53
 200:Drivers/STM32F2xx_HAL_Driver/Src/stm32f2xx_hal_exti.c ****       regval &= ~(SYSCFG_EXTICR1_EXTI0 << (SYSCFG_EXTICR1_EXTI1_Pos * (linepos & 0x03u)));
 170              		.loc 1 200 7 view .LVU54
 200:Drivers/STM32F2xx_HAL_Driver/Src/stm32f2xx_hal_exti.c ****       regval &= ~(SYSCFG_EXTICR1_EXTI0 << (SYSCFG_EXTICR1_EXTI1_Pos * (linepos & 0x03u)));
 171              		.loc 1 200 39 is_stmt 0 view .LVU55
 172 0086 8008     		lsrs	r0, r0, #2
 173              	.LVL7:
 200:Drivers/STM32F2xx_HAL_Driver/Src/stm32f2xx_hal_exti.c ****       regval &= ~(SYSCFG_EXTICR1_EXTI0 << (SYSCFG_EXTICR1_EXTI1_Pos * (linepos & 0x03u)));
 174              		.loc 1 200 14 view .LVU56
 175 0088 124E     		ldr	r6, .L18+4
 176 008a 0230     		adds	r0, r0, #2
 177 008c 56F82050 		ldr	r5, [r6, r0, lsl #2]
 178              	.LVL8:
 201:Drivers/STM32F2xx_HAL_Driver/Src/stm32f2xx_hal_exti.c ****       regval |= (pExtiConfig->GPIOSel << (SYSCFG_EXTICR1_EXTI1_Pos * (linepos & 0x03u)));
 179              		.loc 1 201 7 is_stmt 1 view .LVU57
 201:Drivers/STM32F2xx_HAL_Driver/Src/stm32f2xx_hal_exti.c ****       regval |= (pExtiConfig->GPIOSel << (SYSCFG_EXTICR1_EXTI1_Pos * (linepos & 0x03u)));
 180              		.loc 1 201 80 is_stmt 0 view .LVU58
 181 0090 02F00302 		and	r2, r2, #3
 182              	.LVL9:
 201:Drivers/STM32F2xx_HAL_Driver/Src/stm32f2xx_hal_exti.c ****       regval |= (pExtiConfig->GPIOSel << (SYSCFG_EXTICR1_EXTI1_Pos * (linepos & 0x03u)));
 183              		.loc 1 201 69 view .LVU59
 184 0094 9200     		lsls	r2, r2, #2
 201:Drivers/STM32F2xx_HAL_Driver/Src/stm32f2xx_hal_exti.c ****       regval |= (pExtiConfig->GPIOSel << (SYSCFG_EXTICR1_EXTI1_Pos * (linepos & 0x03u)));
 185              		.loc 1 201 40 view .LVU60
 186 0096 0F24     		movs	r4, #15
 187 0098 9440     		lsls	r4, r4, r2
 201:Drivers/STM32F2xx_HAL_Driver/Src/stm32f2xx_hal_exti.c ****       regval |= (pExtiConfig->GPIOSel << (SYSCFG_EXTICR1_EXTI1_Pos * (linepos & 0x03u)));
 188              		.loc 1 201 14 view .LVU61
 189 009a 25EA0405 		bic	r5, r5, r4
 190              	.LVL10:
 202:Drivers/STM32F2xx_HAL_Driver/Src/stm32f2xx_hal_exti.c ****       SYSCFG->EXTICR[linepos >> 2u] = regval;
 191              		.loc 1 202 7 is_stmt 1 view .LVU62
 202:Drivers/STM32F2xx_HAL_Driver/Src/stm32f2xx_hal_exti.c ****       SYSCFG->EXTICR[linepos >> 2u] = regval;
 192              		.loc 1 202 29 is_stmt 0 view .LVU63
 193 009e CC68     		ldr	r4, [r1, #12]
 202:Drivers/STM32F2xx_HAL_Driver/Src/stm32f2xx_hal_exti.c ****       SYSCFG->EXTICR[linepos >> 2u] = regval;
 194              		.loc 1 202 39 view .LVU64
 195 00a0 04FA02F2 		lsl	r2, r4, r2
 202:Drivers/STM32F2xx_HAL_Driver/Src/stm32f2xx_hal_exti.c ****       SYSCFG->EXTICR[linepos >> 2u] = regval;
 196              		.loc 1 202 14 view .LVU65
 197 00a4 2A43     		orrs	r2, r2, r5
 198              	.LVL11:
 203:Drivers/STM32F2xx_HAL_Driver/Src/stm32f2xx_hal_exti.c ****     }
 199              		.loc 1 203 7 is_stmt 1 view .LVU66
 203:Drivers/STM32F2xx_HAL_Driver/Src/stm32f2xx_hal_exti.c ****     }
 200              		.loc 1 203 37 is_stmt 0 view .LVU67
 201 00a6 46F82020 		str	r2, [r6, r0, lsl #2]
 202 00aa CDE7     		b	.L3
 203              	.LVL12:
 204              	.L8:
 215:Drivers/STM32F2xx_HAL_Driver/Src/stm32f2xx_hal_exti.c ****   }
 205              		.loc 1 215 5 is_stmt 1 view .LVU68
ARM GAS  /tmp/ccNyIpV0.s 			page 9


 215:Drivers/STM32F2xx_HAL_Driver/Src/stm32f2xx_hal_exti.c ****   }
 206              		.loc 1 215 15 is_stmt 0 view .LVU69
 207 00ac 0848     		ldr	r0, .L18
 208 00ae 0268     		ldr	r2, [r0]
 209 00b0 22EA0302 		bic	r2, r2, r3
 210 00b4 0260     		str	r2, [r0]
 211 00b6 CFE7     		b	.L9
 212              	.L10:
 226:Drivers/STM32F2xx_HAL_Driver/Src/stm32f2xx_hal_exti.c ****   }
 213              		.loc 1 226 5 is_stmt 1 view .LVU70
 226:Drivers/STM32F2xx_HAL_Driver/Src/stm32f2xx_hal_exti.c ****   }
 214              		.loc 1 226 15 is_stmt 0 view .LVU71
 215 00b8 0549     		ldr	r1, .L18
 216              	.LVL13:
 226:Drivers/STM32F2xx_HAL_Driver/Src/stm32f2xx_hal_exti.c ****   }
 217              		.loc 1 226 15 view .LVU72
 218 00ba 4A68     		ldr	r2, [r1, #4]
 219 00bc 22EA0303 		bic	r3, r2, r3
 220              	.LVL14:
 226:Drivers/STM32F2xx_HAL_Driver/Src/stm32f2xx_hal_exti.c ****   }
 221              		.loc 1 226 15 view .LVU73
 222 00c0 4B60     		str	r3, [r1, #4]
 229:Drivers/STM32F2xx_HAL_Driver/Src/stm32f2xx_hal_exti.c **** }
 223              		.loc 1 229 10 view .LVU74
 224 00c2 0020     		movs	r0, #0
 225 00c4 D1E7     		b	.L2
 226              	.LVL15:
 227              	.L11:
 228              	.LCFI3:
 229              		.cfi_def_cfa_offset 0
 230              		.cfi_restore 4
 231              		.cfi_restore 5
 232              		.cfi_restore 6
 152:Drivers/STM32F2xx_HAL_Driver/Src/stm32f2xx_hal_exti.c ****   }
 233              		.loc 1 152 12 view .LVU75
 234 00c6 0120     		movs	r0, #1
 235              	.LVL16:
 152:Drivers/STM32F2xx_HAL_Driver/Src/stm32f2xx_hal_exti.c ****   }
 236              		.loc 1 152 12 view .LVU76
 237 00c8 7047     		bx	lr
 238              	.LVL17:
 239              	.L12:
 152:Drivers/STM32F2xx_HAL_Driver/Src/stm32f2xx_hal_exti.c ****   }
 240              		.loc 1 152 12 view .LVU77
 241 00ca 0120     		movs	r0, #1
 242              	.LVL18:
 243              		.loc 1 230 1 view .LVU78
 244 00cc 7047     		bx	lr
 245              	.L19:
 246 00ce 00BF     		.align	2
 247              	.L18:
 248 00d0 003C0140 		.word	1073822720
 249 00d4 00380140 		.word	1073821696
 250              		.cfi_endproc
 251              	.LFE72:
 253              		.section	.text.HAL_EXTI_GetConfigLine,"ax",%progbits
 254              		.align	1
ARM GAS  /tmp/ccNyIpV0.s 			page 10


 255              		.global	HAL_EXTI_GetConfigLine
 256              		.syntax unified
 257              		.thumb
 258              		.thumb_func
 259              		.fpu softvfp
 261              	HAL_EXTI_GetConfigLine:
 262              	.LVL19:
 263              	.LFB73:
 231:Drivers/STM32F2xx_HAL_Driver/Src/stm32f2xx_hal_exti.c **** 
 232:Drivers/STM32F2xx_HAL_Driver/Src/stm32f2xx_hal_exti.c **** /**
 233:Drivers/STM32F2xx_HAL_Driver/Src/stm32f2xx_hal_exti.c ****   * @brief  Get configuration of a dedicated Exti line.
 234:Drivers/STM32F2xx_HAL_Driver/Src/stm32f2xx_hal_exti.c ****   * @param  hexti Exti handle.
 235:Drivers/STM32F2xx_HAL_Driver/Src/stm32f2xx_hal_exti.c ****   * @param  pExtiConfig Pointer on structure to store Exti configuration.
 236:Drivers/STM32F2xx_HAL_Driver/Src/stm32f2xx_hal_exti.c ****   * @retval HAL Status.
 237:Drivers/STM32F2xx_HAL_Driver/Src/stm32f2xx_hal_exti.c ****   */
 238:Drivers/STM32F2xx_HAL_Driver/Src/stm32f2xx_hal_exti.c **** HAL_StatusTypeDef HAL_EXTI_GetConfigLine(EXTI_HandleTypeDef *hexti, EXTI_ConfigTypeDef *pExtiConfig
 239:Drivers/STM32F2xx_HAL_Driver/Src/stm32f2xx_hal_exti.c **** {
 264              		.loc 1 239 1 is_stmt 1 view -0
 265              		.cfi_startproc
 266              		@ args = 0, pretend = 0, frame = 0
 267              		@ frame_needed = 0, uses_anonymous_args = 0
 268              		@ link register save eliminated.
 240:Drivers/STM32F2xx_HAL_Driver/Src/stm32f2xx_hal_exti.c ****   uint32_t regval;
 269              		.loc 1 240 3 view .LVU80
 241:Drivers/STM32F2xx_HAL_Driver/Src/stm32f2xx_hal_exti.c ****   uint32_t linepos;
 270              		.loc 1 241 3 view .LVU81
 242:Drivers/STM32F2xx_HAL_Driver/Src/stm32f2xx_hal_exti.c ****   uint32_t maskline;
 271              		.loc 1 242 3 view .LVU82
 243:Drivers/STM32F2xx_HAL_Driver/Src/stm32f2xx_hal_exti.c **** 
 244:Drivers/STM32F2xx_HAL_Driver/Src/stm32f2xx_hal_exti.c ****   /* Check null pointer */
 245:Drivers/STM32F2xx_HAL_Driver/Src/stm32f2xx_hal_exti.c ****   if ((hexti == NULL) || (pExtiConfig == NULL))
 272              		.loc 1 245 3 view .LVU83
 273              		.loc 1 245 6 is_stmt 0 view .LVU84
 274 0000 0028     		cmp	r0, #0
 275 0002 43D0     		beq	.L27
 276              		.loc 1 245 23 discriminator 1 view .LVU85
 277 0004 0029     		cmp	r1, #0
 278 0006 43D0     		beq	.L28
 239:Drivers/STM32F2xx_HAL_Driver/Src/stm32f2xx_hal_exti.c ****   uint32_t regval;
 279              		.loc 1 239 1 view .LVU86
 280 0008 30B4     		push	{r4, r5}
 281              	.LCFI4:
 282              		.cfi_def_cfa_offset 8
 283              		.cfi_offset 4, -8
 284              		.cfi_offset 5, -4
 246:Drivers/STM32F2xx_HAL_Driver/Src/stm32f2xx_hal_exti.c ****   {
 247:Drivers/STM32F2xx_HAL_Driver/Src/stm32f2xx_hal_exti.c ****     return HAL_ERROR;
 248:Drivers/STM32F2xx_HAL_Driver/Src/stm32f2xx_hal_exti.c ****   }
 249:Drivers/STM32F2xx_HAL_Driver/Src/stm32f2xx_hal_exti.c **** 
 250:Drivers/STM32F2xx_HAL_Driver/Src/stm32f2xx_hal_exti.c ****   /* Check the parameter */
 251:Drivers/STM32F2xx_HAL_Driver/Src/stm32f2xx_hal_exti.c ****   assert_param(IS_EXTI_LINE(hexti->Line));
 285              		.loc 1 251 3 is_stmt 1 view .LVU87
 252:Drivers/STM32F2xx_HAL_Driver/Src/stm32f2xx_hal_exti.c **** 
 253:Drivers/STM32F2xx_HAL_Driver/Src/stm32f2xx_hal_exti.c ****   /* Store handle line number to configuration structure */
 254:Drivers/STM32F2xx_HAL_Driver/Src/stm32f2xx_hal_exti.c ****   pExtiConfig->Line = hexti->Line;
 286              		.loc 1 254 3 view .LVU88
 287              		.loc 1 254 28 is_stmt 0 view .LVU89
ARM GAS  /tmp/ccNyIpV0.s 			page 11


 288 000a 0468     		ldr	r4, [r0]
 289              		.loc 1 254 21 view .LVU90
 290 000c 0C60     		str	r4, [r1]
 255:Drivers/STM32F2xx_HAL_Driver/Src/stm32f2xx_hal_exti.c **** 
 256:Drivers/STM32F2xx_HAL_Driver/Src/stm32f2xx_hal_exti.c ****   /* Compute line mask */
 257:Drivers/STM32F2xx_HAL_Driver/Src/stm32f2xx_hal_exti.c ****   linepos = (pExtiConfig->Line & EXTI_PIN_MASK);
 291              		.loc 1 257 3 is_stmt 1 view .LVU91
 292              		.loc 1 257 11 is_stmt 0 view .LVU92
 293 000e 04F01F05 		and	r5, r4, #31
 294              	.LVL20:
 258:Drivers/STM32F2xx_HAL_Driver/Src/stm32f2xx_hal_exti.c ****   maskline = (1uL << linepos);
 295              		.loc 1 258 3 is_stmt 1 view .LVU93
 296              		.loc 1 258 12 is_stmt 0 view .LVU94
 297 0012 0123     		movs	r3, #1
 298 0014 AB40     		lsls	r3, r3, r5
 299              	.LVL21:
 259:Drivers/STM32F2xx_HAL_Driver/Src/stm32f2xx_hal_exti.c **** 
 260:Drivers/STM32F2xx_HAL_Driver/Src/stm32f2xx_hal_exti.c ****   /* 1] Get core mode : interrupt */
 261:Drivers/STM32F2xx_HAL_Driver/Src/stm32f2xx_hal_exti.c **** 
 262:Drivers/STM32F2xx_HAL_Driver/Src/stm32f2xx_hal_exti.c ****   /* Check if selected line is enable */
 263:Drivers/STM32F2xx_HAL_Driver/Src/stm32f2xx_hal_exti.c ****   if ((EXTI->IMR & maskline) != 0x00u)
 300              		.loc 1 263 3 is_stmt 1 view .LVU95
 301              		.loc 1 263 12 is_stmt 0 view .LVU96
 302 0016 2148     		ldr	r0, .L36
 303              	.LVL22:
 304              		.loc 1 263 12 view .LVU97
 305 0018 0068     		ldr	r0, [r0]
 306              		.loc 1 263 6 view .LVU98
 307 001a 1842     		tst	r0, r3
 308 001c 24D0     		beq	.L22
 264:Drivers/STM32F2xx_HAL_Driver/Src/stm32f2xx_hal_exti.c ****   {
 265:Drivers/STM32F2xx_HAL_Driver/Src/stm32f2xx_hal_exti.c ****     pExtiConfig->Mode = EXTI_MODE_INTERRUPT;
 309              		.loc 1 265 5 is_stmt 1 view .LVU99
 310              		.loc 1 265 23 is_stmt 0 view .LVU100
 311 001e 0122     		movs	r2, #1
 312 0020 4A60     		str	r2, [r1, #4]
 313              	.L23:
 266:Drivers/STM32F2xx_HAL_Driver/Src/stm32f2xx_hal_exti.c ****   }
 267:Drivers/STM32F2xx_HAL_Driver/Src/stm32f2xx_hal_exti.c ****   else
 268:Drivers/STM32F2xx_HAL_Driver/Src/stm32f2xx_hal_exti.c ****   {
 269:Drivers/STM32F2xx_HAL_Driver/Src/stm32f2xx_hal_exti.c ****     pExtiConfig->Mode = EXTI_MODE_NONE;
 270:Drivers/STM32F2xx_HAL_Driver/Src/stm32f2xx_hal_exti.c ****   }
 271:Drivers/STM32F2xx_HAL_Driver/Src/stm32f2xx_hal_exti.c **** 
 272:Drivers/STM32F2xx_HAL_Driver/Src/stm32f2xx_hal_exti.c ****   /* Get event mode */
 273:Drivers/STM32F2xx_HAL_Driver/Src/stm32f2xx_hal_exti.c ****   /* Check if selected line is enable */
 274:Drivers/STM32F2xx_HAL_Driver/Src/stm32f2xx_hal_exti.c ****   if ((EXTI->EMR & maskline) != 0x00u)
 314              		.loc 1 274 3 is_stmt 1 view .LVU101
 315              		.loc 1 274 12 is_stmt 0 view .LVU102
 316 0022 1E48     		ldr	r0, .L36
 317 0024 4068     		ldr	r0, [r0, #4]
 318              		.loc 1 274 6 view .LVU103
 319 0026 1842     		tst	r0, r3
 320 0028 03D0     		beq	.L24
 275:Drivers/STM32F2xx_HAL_Driver/Src/stm32f2xx_hal_exti.c ****   {
 276:Drivers/STM32F2xx_HAL_Driver/Src/stm32f2xx_hal_exti.c ****     pExtiConfig->Mode |= EXTI_MODE_EVENT;
 321              		.loc 1 276 5 is_stmt 1 view .LVU104
 322              		.loc 1 276 23 is_stmt 0 view .LVU105
ARM GAS  /tmp/ccNyIpV0.s 			page 12


 323 002a 4868     		ldr	r0, [r1, #4]
 324 002c 40F00200 		orr	r0, r0, #2
 325 0030 4860     		str	r0, [r1, #4]
 326              	.L24:
 277:Drivers/STM32F2xx_HAL_Driver/Src/stm32f2xx_hal_exti.c ****   }
 278:Drivers/STM32F2xx_HAL_Driver/Src/stm32f2xx_hal_exti.c **** 
 279:Drivers/STM32F2xx_HAL_Driver/Src/stm32f2xx_hal_exti.c ****   /* Get default Trigger and GPIOSel configuration */
 280:Drivers/STM32F2xx_HAL_Driver/Src/stm32f2xx_hal_exti.c ****   pExtiConfig->Trigger = EXTI_TRIGGER_NONE;
 327              		.loc 1 280 3 is_stmt 1 view .LVU106
 328              		.loc 1 280 24 is_stmt 0 view .LVU107
 329 0032 0022     		movs	r2, #0
 330 0034 8A60     		str	r2, [r1, #8]
 281:Drivers/STM32F2xx_HAL_Driver/Src/stm32f2xx_hal_exti.c ****   pExtiConfig->GPIOSel = 0x00u;
 331              		.loc 1 281 3 is_stmt 1 view .LVU108
 332              		.loc 1 281 24 is_stmt 0 view .LVU109
 333 0036 CA60     		str	r2, [r1, #12]
 282:Drivers/STM32F2xx_HAL_Driver/Src/stm32f2xx_hal_exti.c **** 
 283:Drivers/STM32F2xx_HAL_Driver/Src/stm32f2xx_hal_exti.c ****   /* 2] Get trigger for configurable lines : rising */
 284:Drivers/STM32F2xx_HAL_Driver/Src/stm32f2xx_hal_exti.c ****   if ((pExtiConfig->Line & EXTI_CONFIG) != 0x00u)
 334              		.loc 1 284 3 is_stmt 1 view .LVU110
 335              		.loc 1 284 6 is_stmt 0 view .LVU111
 336 0038 14F0007F 		tst	r4, #33554432
 337 003c 2AD0     		beq	.L29
 285:Drivers/STM32F2xx_HAL_Driver/Src/stm32f2xx_hal_exti.c ****   {
 286:Drivers/STM32F2xx_HAL_Driver/Src/stm32f2xx_hal_exti.c ****     /* Check if configuration of selected line is enable */
 287:Drivers/STM32F2xx_HAL_Driver/Src/stm32f2xx_hal_exti.c ****     if ((EXTI->RTSR & maskline) != 0x00u)
 338              		.loc 1 287 5 is_stmt 1 view .LVU112
 339              		.loc 1 287 14 is_stmt 0 view .LVU113
 340 003e 174A     		ldr	r2, .L36
 341 0040 9268     		ldr	r2, [r2, #8]
 342              		.loc 1 287 8 view .LVU114
 343 0042 1A42     		tst	r2, r3
 344 0044 01D0     		beq	.L25
 288:Drivers/STM32F2xx_HAL_Driver/Src/stm32f2xx_hal_exti.c ****     {
 289:Drivers/STM32F2xx_HAL_Driver/Src/stm32f2xx_hal_exti.c ****       pExtiConfig->Trigger = EXTI_TRIGGER_RISING;
 345              		.loc 1 289 7 is_stmt 1 view .LVU115
 346              		.loc 1 289 28 is_stmt 0 view .LVU116
 347 0046 0122     		movs	r2, #1
 348 0048 8A60     		str	r2, [r1, #8]
 349              	.L25:
 290:Drivers/STM32F2xx_HAL_Driver/Src/stm32f2xx_hal_exti.c ****     }
 291:Drivers/STM32F2xx_HAL_Driver/Src/stm32f2xx_hal_exti.c **** 
 292:Drivers/STM32F2xx_HAL_Driver/Src/stm32f2xx_hal_exti.c ****     /* Get falling configuration */
 293:Drivers/STM32F2xx_HAL_Driver/Src/stm32f2xx_hal_exti.c ****     /* Check if configuration of selected line is enable */
 294:Drivers/STM32F2xx_HAL_Driver/Src/stm32f2xx_hal_exti.c ****     if ((EXTI->FTSR & maskline) != 0x00u)
 350              		.loc 1 294 5 is_stmt 1 view .LVU117
 351              		.loc 1 294 14 is_stmt 0 view .LVU118
 352 004a 144A     		ldr	r2, .L36
 353 004c D268     		ldr	r2, [r2, #12]
 354              		.loc 1 294 8 view .LVU119
 355 004e 1A42     		tst	r2, r3
 356 0050 03D0     		beq	.L26
 295:Drivers/STM32F2xx_HAL_Driver/Src/stm32f2xx_hal_exti.c ****     {
 296:Drivers/STM32F2xx_HAL_Driver/Src/stm32f2xx_hal_exti.c ****       pExtiConfig->Trigger |= EXTI_TRIGGER_FALLING;
 357              		.loc 1 296 7 is_stmt 1 view .LVU120
 358              		.loc 1 296 28 is_stmt 0 view .LVU121
 359 0052 8B68     		ldr	r3, [r1, #8]
ARM GAS  /tmp/ccNyIpV0.s 			page 13


 360              	.LVL23:
 361              		.loc 1 296 28 view .LVU122
 362 0054 43F00203 		orr	r3, r3, #2
 363 0058 8B60     		str	r3, [r1, #8]
 364              	.L26:
 297:Drivers/STM32F2xx_HAL_Driver/Src/stm32f2xx_hal_exti.c ****     }
 298:Drivers/STM32F2xx_HAL_Driver/Src/stm32f2xx_hal_exti.c **** 
 299:Drivers/STM32F2xx_HAL_Driver/Src/stm32f2xx_hal_exti.c ****     /* Get Gpio port selection for gpio lines */
 300:Drivers/STM32F2xx_HAL_Driver/Src/stm32f2xx_hal_exti.c ****     if ((pExtiConfig->Line & EXTI_GPIO) == EXTI_GPIO)
 365              		.loc 1 300 5 is_stmt 1 view .LVU123
 366              		.loc 1 300 28 is_stmt 0 view .LVU124
 367 005a 04F0C063 		and	r3, r4, #100663296
 368              		.loc 1 300 8 view .LVU125
 369 005e B3F1C06F 		cmp	r3, #100663296
 370 0062 04D0     		beq	.L35
 301:Drivers/STM32F2xx_HAL_Driver/Src/stm32f2xx_hal_exti.c ****     {
 302:Drivers/STM32F2xx_HAL_Driver/Src/stm32f2xx_hal_exti.c ****       assert_param(IS_EXTI_GPIO_PIN(linepos));
 303:Drivers/STM32F2xx_HAL_Driver/Src/stm32f2xx_hal_exti.c **** 
 304:Drivers/STM32F2xx_HAL_Driver/Src/stm32f2xx_hal_exti.c ****       regval = SYSCFG->EXTICR[linepos >> 2u];
 305:Drivers/STM32F2xx_HAL_Driver/Src/stm32f2xx_hal_exti.c ****       pExtiConfig->GPIOSel = (regval >> (SYSCFG_EXTICR1_EXTI1_Pos * (linepos & 0x03u))) & SYSCFG_EX
 306:Drivers/STM32F2xx_HAL_Driver/Src/stm32f2xx_hal_exti.c ****     }
 307:Drivers/STM32F2xx_HAL_Driver/Src/stm32f2xx_hal_exti.c ****   }
 308:Drivers/STM32F2xx_HAL_Driver/Src/stm32f2xx_hal_exti.c **** 
 309:Drivers/STM32F2xx_HAL_Driver/Src/stm32f2xx_hal_exti.c ****   return HAL_OK;
 371              		.loc 1 309 10 view .LVU126
 372 0064 0020     		movs	r0, #0
 373 0066 16E0     		b	.L21
 374              	.LVL24:
 375              	.L22:
 269:Drivers/STM32F2xx_HAL_Driver/Src/stm32f2xx_hal_exti.c ****   }
 376              		.loc 1 269 5 is_stmt 1 view .LVU127
 269:Drivers/STM32F2xx_HAL_Driver/Src/stm32f2xx_hal_exti.c ****   }
 377              		.loc 1 269 23 is_stmt 0 view .LVU128
 378 0068 0022     		movs	r2, #0
 379 006a 4A60     		str	r2, [r1, #4]
 380 006c D9E7     		b	.L23
 381              	.LVL25:
 382              	.L35:
 302:Drivers/STM32F2xx_HAL_Driver/Src/stm32f2xx_hal_exti.c **** 
 383              		.loc 1 302 7 is_stmt 1 view .LVU129
 304:Drivers/STM32F2xx_HAL_Driver/Src/stm32f2xx_hal_exti.c ****       pExtiConfig->GPIOSel = (regval >> (SYSCFG_EXTICR1_EXTI1_Pos * (linepos & 0x03u))) & SYSCFG_EX
 384              		.loc 1 304 7 view .LVU130
 304:Drivers/STM32F2xx_HAL_Driver/Src/stm32f2xx_hal_exti.c ****       pExtiConfig->GPIOSel = (regval >> (SYSCFG_EXTICR1_EXTI1_Pos * (linepos & 0x03u))) & SYSCFG_EX
 385              		.loc 1 304 39 is_stmt 0 view .LVU131
 386 006e AA08     		lsrs	r2, r5, #2
 304:Drivers/STM32F2xx_HAL_Driver/Src/stm32f2xx_hal_exti.c ****       pExtiConfig->GPIOSel = (regval >> (SYSCFG_EXTICR1_EXTI1_Pos * (linepos & 0x03u))) & SYSCFG_EX
 387              		.loc 1 304 14 view .LVU132
 388 0070 0232     		adds	r2, r2, #2
 389 0072 0B4B     		ldr	r3, .L36+4
 390 0074 53F82220 		ldr	r2, [r3, r2, lsl #2]
 391              	.LVL26:
 305:Drivers/STM32F2xx_HAL_Driver/Src/stm32f2xx_hal_exti.c ****     }
 392              		.loc 1 305 7 is_stmt 1 view .LVU133
 305:Drivers/STM32F2xx_HAL_Driver/Src/stm32f2xx_hal_exti.c ****     }
 393              		.loc 1 305 78 is_stmt 0 view .LVU134
 394 0078 04F00303 		and	r3, r4, #3
 305:Drivers/STM32F2xx_HAL_Driver/Src/stm32f2xx_hal_exti.c ****     }
ARM GAS  /tmp/ccNyIpV0.s 			page 14


 395              		.loc 1 305 67 view .LVU135
 396 007c 9B00     		lsls	r3, r3, #2
 305:Drivers/STM32F2xx_HAL_Driver/Src/stm32f2xx_hal_exti.c ****     }
 397              		.loc 1 305 38 view .LVU136
 398 007e 22FA03F3 		lsr	r3, r2, r3
 305:Drivers/STM32F2xx_HAL_Driver/Src/stm32f2xx_hal_exti.c ****     }
 399              		.loc 1 305 89 view .LVU137
 400 0082 03F00F03 		and	r3, r3, #15
 305:Drivers/STM32F2xx_HAL_Driver/Src/stm32f2xx_hal_exti.c ****     }
 401              		.loc 1 305 28 view .LVU138
 402 0086 CB60     		str	r3, [r1, #12]
 403              		.loc 1 309 10 view .LVU139
 404 0088 0020     		movs	r0, #0
 405 008a 04E0     		b	.L21
 406              	.LVL27:
 407              	.L27:
 408              	.LCFI5:
 409              		.cfi_def_cfa_offset 0
 410              		.cfi_restore 4
 411              		.cfi_restore 5
 247:Drivers/STM32F2xx_HAL_Driver/Src/stm32f2xx_hal_exti.c ****   }
 412              		.loc 1 247 12 view .LVU140
 413 008c 0120     		movs	r0, #1
 414              	.LVL28:
 247:Drivers/STM32F2xx_HAL_Driver/Src/stm32f2xx_hal_exti.c ****   }
 415              		.loc 1 247 12 view .LVU141
 416 008e 7047     		bx	lr
 417              	.LVL29:
 418              	.L28:
 247:Drivers/STM32F2xx_HAL_Driver/Src/stm32f2xx_hal_exti.c ****   }
 419              		.loc 1 247 12 view .LVU142
 420 0090 0120     		movs	r0, #1
 421              	.LVL30:
 310:Drivers/STM32F2xx_HAL_Driver/Src/stm32f2xx_hal_exti.c **** }
 422              		.loc 1 310 1 view .LVU143
 423 0092 7047     		bx	lr
 424              	.LVL31:
 425              	.L29:
 426              	.LCFI6:
 427              		.cfi_def_cfa_offset 8
 428              		.cfi_offset 4, -8
 429              		.cfi_offset 5, -4
 309:Drivers/STM32F2xx_HAL_Driver/Src/stm32f2xx_hal_exti.c **** }
 430              		.loc 1 309 10 view .LVU144
 431 0094 0020     		movs	r0, #0
 432              	.LVL32:
 433              	.L21:
 434              		.loc 1 310 1 view .LVU145
 435 0096 30BC     		pop	{r4, r5}
 436              	.LCFI7:
 437              		.cfi_restore 5
 438              		.cfi_restore 4
 439              		.cfi_def_cfa_offset 0
 440              	.LVL33:
 441              		.loc 1 310 1 view .LVU146
 442 0098 7047     		bx	lr
 443              	.L37:
ARM GAS  /tmp/ccNyIpV0.s 			page 15


 444 009a 00BF     		.align	2
 445              	.L36:
 446 009c 003C0140 		.word	1073822720
 447 00a0 00380140 		.word	1073821696
 448              		.cfi_endproc
 449              	.LFE73:
 451              		.section	.text.HAL_EXTI_ClearConfigLine,"ax",%progbits
 452              		.align	1
 453              		.global	HAL_EXTI_ClearConfigLine
 454              		.syntax unified
 455              		.thumb
 456              		.thumb_func
 457              		.fpu softvfp
 459              	HAL_EXTI_ClearConfigLine:
 460              	.LVL34:
 461              	.LFB74:
 311:Drivers/STM32F2xx_HAL_Driver/Src/stm32f2xx_hal_exti.c **** 
 312:Drivers/STM32F2xx_HAL_Driver/Src/stm32f2xx_hal_exti.c **** /**
 313:Drivers/STM32F2xx_HAL_Driver/Src/stm32f2xx_hal_exti.c ****   * @brief  Clear whole configuration of a dedicated Exti line.
 314:Drivers/STM32F2xx_HAL_Driver/Src/stm32f2xx_hal_exti.c ****   * @param  hexti Exti handle.
 315:Drivers/STM32F2xx_HAL_Driver/Src/stm32f2xx_hal_exti.c ****   * @retval HAL Status.
 316:Drivers/STM32F2xx_HAL_Driver/Src/stm32f2xx_hal_exti.c ****   */
 317:Drivers/STM32F2xx_HAL_Driver/Src/stm32f2xx_hal_exti.c **** HAL_StatusTypeDef HAL_EXTI_ClearConfigLine(EXTI_HandleTypeDef *hexti)
 318:Drivers/STM32F2xx_HAL_Driver/Src/stm32f2xx_hal_exti.c **** {
 462              		.loc 1 318 1 is_stmt 1 view -0
 463              		.cfi_startproc
 464              		@ args = 0, pretend = 0, frame = 0
 465              		@ frame_needed = 0, uses_anonymous_args = 0
 466              		@ link register save eliminated.
 319:Drivers/STM32F2xx_HAL_Driver/Src/stm32f2xx_hal_exti.c ****   uint32_t regval;
 467              		.loc 1 319 3 view .LVU148
 320:Drivers/STM32F2xx_HAL_Driver/Src/stm32f2xx_hal_exti.c ****   uint32_t linepos;
 468              		.loc 1 320 3 view .LVU149
 321:Drivers/STM32F2xx_HAL_Driver/Src/stm32f2xx_hal_exti.c ****   uint32_t maskline;
 469              		.loc 1 321 3 view .LVU150
 322:Drivers/STM32F2xx_HAL_Driver/Src/stm32f2xx_hal_exti.c **** 
 323:Drivers/STM32F2xx_HAL_Driver/Src/stm32f2xx_hal_exti.c ****   /* Check null pointer */
 324:Drivers/STM32F2xx_HAL_Driver/Src/stm32f2xx_hal_exti.c ****   if (hexti == NULL)
 470              		.loc 1 324 3 view .LVU151
 471              		.loc 1 324 6 is_stmt 0 view .LVU152
 472 0000 0028     		cmp	r0, #0
 473 0002 32D0     		beq	.L40
 318:Drivers/STM32F2xx_HAL_Driver/Src/stm32f2xx_hal_exti.c ****   uint32_t regval;
 474              		.loc 1 318 1 view .LVU153
 475 0004 30B4     		push	{r4, r5}
 476              	.LCFI8:
 477              		.cfi_def_cfa_offset 8
 478              		.cfi_offset 4, -8
 479              		.cfi_offset 5, -4
 480 0006 0446     		mov	r4, r0
 325:Drivers/STM32F2xx_HAL_Driver/Src/stm32f2xx_hal_exti.c ****   {
 326:Drivers/STM32F2xx_HAL_Driver/Src/stm32f2xx_hal_exti.c ****     return HAL_ERROR;
 327:Drivers/STM32F2xx_HAL_Driver/Src/stm32f2xx_hal_exti.c ****   }
 328:Drivers/STM32F2xx_HAL_Driver/Src/stm32f2xx_hal_exti.c **** 
 329:Drivers/STM32F2xx_HAL_Driver/Src/stm32f2xx_hal_exti.c ****   /* Check the parameter */
 330:Drivers/STM32F2xx_HAL_Driver/Src/stm32f2xx_hal_exti.c ****   assert_param(IS_EXTI_LINE(hexti->Line));
 481              		.loc 1 330 3 is_stmt 1 view .LVU154
ARM GAS  /tmp/ccNyIpV0.s 			page 16


 331:Drivers/STM32F2xx_HAL_Driver/Src/stm32f2xx_hal_exti.c **** 
 332:Drivers/STM32F2xx_HAL_Driver/Src/stm32f2xx_hal_exti.c ****   /* compute line mask */
 333:Drivers/STM32F2xx_HAL_Driver/Src/stm32f2xx_hal_exti.c ****   linepos = (hexti->Line & EXTI_PIN_MASK);
 482              		.loc 1 333 3 view .LVU155
 483              		.loc 1 333 19 is_stmt 0 view .LVU156
 484 0008 0568     		ldr	r5, [r0]
 485              		.loc 1 333 11 view .LVU157
 486 000a 05F01F00 		and	r0, r5, #31
 487              	.LVL35:
 334:Drivers/STM32F2xx_HAL_Driver/Src/stm32f2xx_hal_exti.c ****   maskline = (1uL << linepos);
 488              		.loc 1 334 3 is_stmt 1 view .LVU158
 489              		.loc 1 334 12 is_stmt 0 view .LVU159
 490 000e 0123     		movs	r3, #1
 491 0010 8340     		lsls	r3, r3, r0
 492              	.LVL36:
 335:Drivers/STM32F2xx_HAL_Driver/Src/stm32f2xx_hal_exti.c **** 
 336:Drivers/STM32F2xx_HAL_Driver/Src/stm32f2xx_hal_exti.c ****   /* 1] Clear interrupt mode */
 337:Drivers/STM32F2xx_HAL_Driver/Src/stm32f2xx_hal_exti.c ****   EXTI->IMR = (EXTI->IMR & ~maskline);
 493              		.loc 1 337 3 is_stmt 1 view .LVU160
 494              		.loc 1 337 20 is_stmt 0 view .LVU161
 495 0012 184A     		ldr	r2, .L48
 496 0014 1168     		ldr	r1, [r2]
 497              		.loc 1 337 28 view .LVU162
 498 0016 DB43     		mvns	r3, r3
 499              	.LVL37:
 500              		.loc 1 337 26 view .LVU163
 501 0018 1940     		ands	r1, r1, r3
 502              		.loc 1 337 13 view .LVU164
 503 001a 1160     		str	r1, [r2]
 338:Drivers/STM32F2xx_HAL_Driver/Src/stm32f2xx_hal_exti.c **** 
 339:Drivers/STM32F2xx_HAL_Driver/Src/stm32f2xx_hal_exti.c ****   /* 2] Clear event mode */
 340:Drivers/STM32F2xx_HAL_Driver/Src/stm32f2xx_hal_exti.c ****   EXTI->EMR = (EXTI->EMR & ~maskline);
 504              		.loc 1 340 3 is_stmt 1 view .LVU165
 505              		.loc 1 340 20 is_stmt 0 view .LVU166
 506 001c 5168     		ldr	r1, [r2, #4]
 507              		.loc 1 340 26 view .LVU167
 508 001e 1940     		ands	r1, r1, r3
 509              		.loc 1 340 13 view .LVU168
 510 0020 5160     		str	r1, [r2, #4]
 341:Drivers/STM32F2xx_HAL_Driver/Src/stm32f2xx_hal_exti.c **** 
 342:Drivers/STM32F2xx_HAL_Driver/Src/stm32f2xx_hal_exti.c ****   /* 3] Clear triggers in case of configurable lines */
 343:Drivers/STM32F2xx_HAL_Driver/Src/stm32f2xx_hal_exti.c ****   if ((hexti->Line & EXTI_CONFIG) != 0x00u)
 511              		.loc 1 343 3 is_stmt 1 view .LVU169
 512              		.loc 1 343 13 is_stmt 0 view .LVU170
 513 0022 2268     		ldr	r2, [r4]
 514              		.loc 1 343 6 view .LVU171
 515 0024 12F0007F 		tst	r2, #33554432
 516 0028 21D0     		beq	.L41
 344:Drivers/STM32F2xx_HAL_Driver/Src/stm32f2xx_hal_exti.c ****   {
 345:Drivers/STM32F2xx_HAL_Driver/Src/stm32f2xx_hal_exti.c ****     EXTI->RTSR = (EXTI->RTSR & ~maskline);
 517              		.loc 1 345 5 is_stmt 1 view .LVU172
 518              		.loc 1 345 23 is_stmt 0 view .LVU173
 519 002a 124A     		ldr	r2, .L48
 520 002c 9168     		ldr	r1, [r2, #8]
 521              		.loc 1 345 30 view .LVU174
 522 002e 1940     		ands	r1, r1, r3
 523              		.loc 1 345 16 view .LVU175
ARM GAS  /tmp/ccNyIpV0.s 			page 17


 524 0030 9160     		str	r1, [r2, #8]
 346:Drivers/STM32F2xx_HAL_Driver/Src/stm32f2xx_hal_exti.c ****     EXTI->FTSR = (EXTI->FTSR & ~maskline);
 525              		.loc 1 346 5 is_stmt 1 view .LVU176
 526              		.loc 1 346 23 is_stmt 0 view .LVU177
 527 0032 D168     		ldr	r1, [r2, #12]
 528              		.loc 1 346 30 view .LVU178
 529 0034 0B40     		ands	r3, r3, r1
 530              	.LVL38:
 531              		.loc 1 346 16 view .LVU179
 532 0036 D360     		str	r3, [r2, #12]
 347:Drivers/STM32F2xx_HAL_Driver/Src/stm32f2xx_hal_exti.c **** 
 348:Drivers/STM32F2xx_HAL_Driver/Src/stm32f2xx_hal_exti.c ****     /* Get Gpio port selection for gpio lines */
 349:Drivers/STM32F2xx_HAL_Driver/Src/stm32f2xx_hal_exti.c ****     if ((hexti->Line & EXTI_GPIO) == EXTI_GPIO)
 533              		.loc 1 349 5 is_stmt 1 view .LVU180
 534              		.loc 1 349 15 is_stmt 0 view .LVU181
 535 0038 2368     		ldr	r3, [r4]
 536              		.loc 1 349 22 view .LVU182
 537 003a 03F0C063 		and	r3, r3, #100663296
 538              		.loc 1 349 8 view .LVU183
 539 003e B3F1C06F 		cmp	r3, #100663296
 540 0042 01D0     		beq	.L47
 350:Drivers/STM32F2xx_HAL_Driver/Src/stm32f2xx_hal_exti.c ****     {
 351:Drivers/STM32F2xx_HAL_Driver/Src/stm32f2xx_hal_exti.c ****       assert_param(IS_EXTI_GPIO_PIN(linepos));
 352:Drivers/STM32F2xx_HAL_Driver/Src/stm32f2xx_hal_exti.c **** 
 353:Drivers/STM32F2xx_HAL_Driver/Src/stm32f2xx_hal_exti.c ****       regval = SYSCFG->EXTICR[linepos >> 2u];
 354:Drivers/STM32F2xx_HAL_Driver/Src/stm32f2xx_hal_exti.c ****       regval &= ~(SYSCFG_EXTICR1_EXTI0 << (SYSCFG_EXTICR1_EXTI1_Pos * (linepos & 0x03u)));
 355:Drivers/STM32F2xx_HAL_Driver/Src/stm32f2xx_hal_exti.c ****       SYSCFG->EXTICR[linepos >> 2u] = regval;
 356:Drivers/STM32F2xx_HAL_Driver/Src/stm32f2xx_hal_exti.c ****     }
 357:Drivers/STM32F2xx_HAL_Driver/Src/stm32f2xx_hal_exti.c ****   }
 358:Drivers/STM32F2xx_HAL_Driver/Src/stm32f2xx_hal_exti.c **** 
 359:Drivers/STM32F2xx_HAL_Driver/Src/stm32f2xx_hal_exti.c ****   return HAL_OK;
 541              		.loc 1 359 10 view .LVU184
 542 0044 0020     		movs	r0, #0
 543              	.LVL39:
 544              		.loc 1 359 10 view .LVU185
 545 0046 13E0     		b	.L39
 546              	.LVL40:
 547              	.L47:
 351:Drivers/STM32F2xx_HAL_Driver/Src/stm32f2xx_hal_exti.c **** 
 548              		.loc 1 351 7 is_stmt 1 view .LVU186
 353:Drivers/STM32F2xx_HAL_Driver/Src/stm32f2xx_hal_exti.c ****       regval &= ~(SYSCFG_EXTICR1_EXTI0 << (SYSCFG_EXTICR1_EXTI1_Pos * (linepos & 0x03u)));
 549              		.loc 1 353 7 view .LVU187
 353:Drivers/STM32F2xx_HAL_Driver/Src/stm32f2xx_hal_exti.c ****       regval &= ~(SYSCFG_EXTICR1_EXTI0 << (SYSCFG_EXTICR1_EXTI1_Pos * (linepos & 0x03u)));
 550              		.loc 1 353 39 is_stmt 0 view .LVU188
 551 0048 8008     		lsrs	r0, r0, #2
 552              	.LVL41:
 353:Drivers/STM32F2xx_HAL_Driver/Src/stm32f2xx_hal_exti.c ****       regval &= ~(SYSCFG_EXTICR1_EXTI0 << (SYSCFG_EXTICR1_EXTI1_Pos * (linepos & 0x03u)));
 553              		.loc 1 353 14 view .LVU189
 554 004a 0B49     		ldr	r1, .L48+4
 555 004c 0230     		adds	r0, r0, #2
 556 004e 51F82030 		ldr	r3, [r1, r0, lsl #2]
 557              	.LVL42:
 354:Drivers/STM32F2xx_HAL_Driver/Src/stm32f2xx_hal_exti.c ****       SYSCFG->EXTICR[linepos >> 2u] = regval;
 558              		.loc 1 354 7 is_stmt 1 view .LVU190
 354:Drivers/STM32F2xx_HAL_Driver/Src/stm32f2xx_hal_exti.c ****       SYSCFG->EXTICR[linepos >> 2u] = regval;
 559              		.loc 1 354 80 is_stmt 0 view .LVU191
 560 0052 05F00305 		and	r5, r5, #3
ARM GAS  /tmp/ccNyIpV0.s 			page 18


 561              	.LVL43:
 354:Drivers/STM32F2xx_HAL_Driver/Src/stm32f2xx_hal_exti.c ****       SYSCFG->EXTICR[linepos >> 2u] = regval;
 562              		.loc 1 354 69 view .LVU192
 563 0056 AD00     		lsls	r5, r5, #2
 354:Drivers/STM32F2xx_HAL_Driver/Src/stm32f2xx_hal_exti.c ****       SYSCFG->EXTICR[linepos >> 2u] = regval;
 564              		.loc 1 354 40 view .LVU193
 565 0058 0F22     		movs	r2, #15
 566 005a 02FA05F5 		lsl	r5, r2, r5
 354:Drivers/STM32F2xx_HAL_Driver/Src/stm32f2xx_hal_exti.c ****       SYSCFG->EXTICR[linepos >> 2u] = regval;
 567              		.loc 1 354 14 view .LVU194
 568 005e 23EA0505 		bic	r5, r3, r5
 569              	.LVL44:
 355:Drivers/STM32F2xx_HAL_Driver/Src/stm32f2xx_hal_exti.c ****     }
 570              		.loc 1 355 7 is_stmt 1 view .LVU195
 355:Drivers/STM32F2xx_HAL_Driver/Src/stm32f2xx_hal_exti.c ****     }
 571              		.loc 1 355 37 is_stmt 0 view .LVU196
 572 0062 41F82050 		str	r5, [r1, r0, lsl #2]
 573              		.loc 1 359 10 view .LVU197
 574 0066 0020     		movs	r0, #0
 575 0068 02E0     		b	.L39
 576              	.LVL45:
 577              	.L40:
 578              	.LCFI9:
 579              		.cfi_def_cfa_offset 0
 580              		.cfi_restore 4
 581              		.cfi_restore 5
 326:Drivers/STM32F2xx_HAL_Driver/Src/stm32f2xx_hal_exti.c ****   }
 582              		.loc 1 326 12 view .LVU198
 583 006a 0120     		movs	r0, #1
 584              	.LVL46:
 360:Drivers/STM32F2xx_HAL_Driver/Src/stm32f2xx_hal_exti.c **** }
 585              		.loc 1 360 1 view .LVU199
 586 006c 7047     		bx	lr
 587              	.LVL47:
 588              	.L41:
 589              	.LCFI10:
 590              		.cfi_def_cfa_offset 8
 591              		.cfi_offset 4, -8
 592              		.cfi_offset 5, -4
 359:Drivers/STM32F2xx_HAL_Driver/Src/stm32f2xx_hal_exti.c **** }
 593              		.loc 1 359 10 view .LVU200
 594 006e 0020     		movs	r0, #0
 595              	.LVL48:
 596              	.L39:
 597              		.loc 1 360 1 view .LVU201
 598 0070 30BC     		pop	{r4, r5}
 599              	.LCFI11:
 600              		.cfi_restore 5
 601              		.cfi_restore 4
 602              		.cfi_def_cfa_offset 0
 603              	.LVL49:
 604              		.loc 1 360 1 view .LVU202
 605 0072 7047     		bx	lr
 606              	.L49:
 607              		.align	2
 608              	.L48:
 609 0074 003C0140 		.word	1073822720
ARM GAS  /tmp/ccNyIpV0.s 			page 19


 610 0078 00380140 		.word	1073821696
 611              		.cfi_endproc
 612              	.LFE74:
 614              		.section	.text.HAL_EXTI_RegisterCallback,"ax",%progbits
 615              		.align	1
 616              		.global	HAL_EXTI_RegisterCallback
 617              		.syntax unified
 618              		.thumb
 619              		.thumb_func
 620              		.fpu softvfp
 622              	HAL_EXTI_RegisterCallback:
 623              	.LVL50:
 624              	.LFB75:
 361:Drivers/STM32F2xx_HAL_Driver/Src/stm32f2xx_hal_exti.c **** 
 362:Drivers/STM32F2xx_HAL_Driver/Src/stm32f2xx_hal_exti.c **** /**
 363:Drivers/STM32F2xx_HAL_Driver/Src/stm32f2xx_hal_exti.c ****   * @brief  Register callback for a dedicated Exti line.
 364:Drivers/STM32F2xx_HAL_Driver/Src/stm32f2xx_hal_exti.c ****   * @param  hexti Exti handle.
 365:Drivers/STM32F2xx_HAL_Driver/Src/stm32f2xx_hal_exti.c ****   * @param  CallbackID User callback identifier.
 366:Drivers/STM32F2xx_HAL_Driver/Src/stm32f2xx_hal_exti.c ****   *         This parameter can be one of @arg @ref EXTI_CallbackIDTypeDef values.
 367:Drivers/STM32F2xx_HAL_Driver/Src/stm32f2xx_hal_exti.c ****   * @param  pPendingCbfn function pointer to be stored as callback.
 368:Drivers/STM32F2xx_HAL_Driver/Src/stm32f2xx_hal_exti.c ****   * @retval HAL Status.
 369:Drivers/STM32F2xx_HAL_Driver/Src/stm32f2xx_hal_exti.c ****   */
 370:Drivers/STM32F2xx_HAL_Driver/Src/stm32f2xx_hal_exti.c **** HAL_StatusTypeDef HAL_EXTI_RegisterCallback(EXTI_HandleTypeDef *hexti, EXTI_CallbackIDTypeDef Callb
 371:Drivers/STM32F2xx_HAL_Driver/Src/stm32f2xx_hal_exti.c **** {
 625              		.loc 1 371 1 is_stmt 1 view -0
 626              		.cfi_startproc
 627              		@ args = 0, pretend = 0, frame = 0
 628              		@ frame_needed = 0, uses_anonymous_args = 0
 629              		@ link register save eliminated.
 372:Drivers/STM32F2xx_HAL_Driver/Src/stm32f2xx_hal_exti.c ****   HAL_StatusTypeDef status = HAL_OK;
 630              		.loc 1 372 3 view .LVU204
 373:Drivers/STM32F2xx_HAL_Driver/Src/stm32f2xx_hal_exti.c **** 
 374:Drivers/STM32F2xx_HAL_Driver/Src/stm32f2xx_hal_exti.c ****   switch (CallbackID)
 631              		.loc 1 374 3 view .LVU205
 632 0000 11B9     		cbnz	r1, .L52
 375:Drivers/STM32F2xx_HAL_Driver/Src/stm32f2xx_hal_exti.c ****   {
 376:Drivers/STM32F2xx_HAL_Driver/Src/stm32f2xx_hal_exti.c ****     case  HAL_EXTI_COMMON_CB_ID:
 377:Drivers/STM32F2xx_HAL_Driver/Src/stm32f2xx_hal_exti.c ****       hexti->PendingCallback = pPendingCbfn;
 633              		.loc 1 377 7 view .LVU206
 634              		.loc 1 377 30 is_stmt 0 view .LVU207
 635 0002 4260     		str	r2, [r0, #4]
 378:Drivers/STM32F2xx_HAL_Driver/Src/stm32f2xx_hal_exti.c ****       break;
 636              		.loc 1 378 7 is_stmt 1 view .LVU208
 372:Drivers/STM32F2xx_HAL_Driver/Src/stm32f2xx_hal_exti.c **** 
 637              		.loc 1 372 21 is_stmt 0 view .LVU209
 638 0004 0846     		mov	r0, r1
 639              	.LVL51:
 640              		.loc 1 378 7 view .LVU210
 641 0006 7047     		bx	lr
 642              	.LVL52:
 643              	.L52:
 379:Drivers/STM32F2xx_HAL_Driver/Src/stm32f2xx_hal_exti.c **** 
 380:Drivers/STM32F2xx_HAL_Driver/Src/stm32f2xx_hal_exti.c ****     default:
 381:Drivers/STM32F2xx_HAL_Driver/Src/stm32f2xx_hal_exti.c ****       status = HAL_ERROR;
 644              		.loc 1 381 14 view .LVU211
 645 0008 0120     		movs	r0, #1
 646              	.LVL53:
ARM GAS  /tmp/ccNyIpV0.s 			page 20


 382:Drivers/STM32F2xx_HAL_Driver/Src/stm32f2xx_hal_exti.c ****       break;
 383:Drivers/STM32F2xx_HAL_Driver/Src/stm32f2xx_hal_exti.c ****   }
 384:Drivers/STM32F2xx_HAL_Driver/Src/stm32f2xx_hal_exti.c **** 
 385:Drivers/STM32F2xx_HAL_Driver/Src/stm32f2xx_hal_exti.c ****   return status;
 647              		.loc 1 385 3 is_stmt 1 view .LVU212
 386:Drivers/STM32F2xx_HAL_Driver/Src/stm32f2xx_hal_exti.c **** }
 648              		.loc 1 386 1 is_stmt 0 view .LVU213
 649 000a 7047     		bx	lr
 650              		.cfi_endproc
 651              	.LFE75:
 653              		.section	.text.HAL_EXTI_GetHandle,"ax",%progbits
 654              		.align	1
 655              		.global	HAL_EXTI_GetHandle
 656              		.syntax unified
 657              		.thumb
 658              		.thumb_func
 659              		.fpu softvfp
 661              	HAL_EXTI_GetHandle:
 662              	.LVL54:
 663              	.LFB76:
 387:Drivers/STM32F2xx_HAL_Driver/Src/stm32f2xx_hal_exti.c **** 
 388:Drivers/STM32F2xx_HAL_Driver/Src/stm32f2xx_hal_exti.c **** /**
 389:Drivers/STM32F2xx_HAL_Driver/Src/stm32f2xx_hal_exti.c ****   * @brief  Store line number as handle private field.
 390:Drivers/STM32F2xx_HAL_Driver/Src/stm32f2xx_hal_exti.c ****   * @param  hexti Exti handle.
 391:Drivers/STM32F2xx_HAL_Driver/Src/stm32f2xx_hal_exti.c ****   * @param  ExtiLine Exti line number.
 392:Drivers/STM32F2xx_HAL_Driver/Src/stm32f2xx_hal_exti.c ****   *         This parameter can be from 0 to @ref EXTI_LINE_NB.
 393:Drivers/STM32F2xx_HAL_Driver/Src/stm32f2xx_hal_exti.c ****   * @retval HAL Status.
 394:Drivers/STM32F2xx_HAL_Driver/Src/stm32f2xx_hal_exti.c ****   */
 395:Drivers/STM32F2xx_HAL_Driver/Src/stm32f2xx_hal_exti.c **** HAL_StatusTypeDef HAL_EXTI_GetHandle(EXTI_HandleTypeDef *hexti, uint32_t ExtiLine)
 396:Drivers/STM32F2xx_HAL_Driver/Src/stm32f2xx_hal_exti.c **** {
 664              		.loc 1 396 1 is_stmt 1 view -0
 665              		.cfi_startproc
 666              		@ args = 0, pretend = 0, frame = 0
 667              		@ frame_needed = 0, uses_anonymous_args = 0
 668              		@ link register save eliminated.
 397:Drivers/STM32F2xx_HAL_Driver/Src/stm32f2xx_hal_exti.c ****   /* Check the parameters */
 398:Drivers/STM32F2xx_HAL_Driver/Src/stm32f2xx_hal_exti.c ****   assert_param(IS_EXTI_LINE(ExtiLine));
 669              		.loc 1 398 3 view .LVU215
 399:Drivers/STM32F2xx_HAL_Driver/Src/stm32f2xx_hal_exti.c **** 
 400:Drivers/STM32F2xx_HAL_Driver/Src/stm32f2xx_hal_exti.c ****   /* Check null pointer */
 401:Drivers/STM32F2xx_HAL_Driver/Src/stm32f2xx_hal_exti.c ****   if (hexti == NULL)
 670              		.loc 1 401 3 view .LVU216
 671              		.loc 1 401 6 is_stmt 0 view .LVU217
 672 0000 10B1     		cbz	r0, .L55
 402:Drivers/STM32F2xx_HAL_Driver/Src/stm32f2xx_hal_exti.c ****   {
 403:Drivers/STM32F2xx_HAL_Driver/Src/stm32f2xx_hal_exti.c ****     return HAL_ERROR;
 404:Drivers/STM32F2xx_HAL_Driver/Src/stm32f2xx_hal_exti.c ****   }
 405:Drivers/STM32F2xx_HAL_Driver/Src/stm32f2xx_hal_exti.c ****   else
 406:Drivers/STM32F2xx_HAL_Driver/Src/stm32f2xx_hal_exti.c ****   {
 407:Drivers/STM32F2xx_HAL_Driver/Src/stm32f2xx_hal_exti.c ****     /* Store line number as handle private field */
 408:Drivers/STM32F2xx_HAL_Driver/Src/stm32f2xx_hal_exti.c ****     hexti->Line = ExtiLine;
 673              		.loc 1 408 5 is_stmt 1 view .LVU218
 674              		.loc 1 408 17 is_stmt 0 view .LVU219
 675 0002 0160     		str	r1, [r0]
 409:Drivers/STM32F2xx_HAL_Driver/Src/stm32f2xx_hal_exti.c **** 
 410:Drivers/STM32F2xx_HAL_Driver/Src/stm32f2xx_hal_exti.c ****     return HAL_OK;
 676              		.loc 1 410 5 is_stmt 1 view .LVU220
ARM GAS  /tmp/ccNyIpV0.s 			page 21


 677              		.loc 1 410 12 is_stmt 0 view .LVU221
 678 0004 0020     		movs	r0, #0
 679              	.LVL55:
 680              		.loc 1 410 12 view .LVU222
 681 0006 7047     		bx	lr
 682              	.LVL56:
 683              	.L55:
 403:Drivers/STM32F2xx_HAL_Driver/Src/stm32f2xx_hal_exti.c ****   }
 684              		.loc 1 403 12 view .LVU223
 685 0008 0120     		movs	r0, #1
 686              	.LVL57:
 411:Drivers/STM32F2xx_HAL_Driver/Src/stm32f2xx_hal_exti.c ****   }
 412:Drivers/STM32F2xx_HAL_Driver/Src/stm32f2xx_hal_exti.c **** }
 687              		.loc 1 412 1 view .LVU224
 688 000a 7047     		bx	lr
 689              		.cfi_endproc
 690              	.LFE76:
 692              		.section	.text.HAL_EXTI_IRQHandler,"ax",%progbits
 693              		.align	1
 694              		.global	HAL_EXTI_IRQHandler
 695              		.syntax unified
 696              		.thumb
 697              		.thumb_func
 698              		.fpu softvfp
 700              	HAL_EXTI_IRQHandler:
 701              	.LVL58:
 702              	.LFB77:
 413:Drivers/STM32F2xx_HAL_Driver/Src/stm32f2xx_hal_exti.c **** 
 414:Drivers/STM32F2xx_HAL_Driver/Src/stm32f2xx_hal_exti.c **** /**
 415:Drivers/STM32F2xx_HAL_Driver/Src/stm32f2xx_hal_exti.c ****   * @}
 416:Drivers/STM32F2xx_HAL_Driver/Src/stm32f2xx_hal_exti.c ****   */
 417:Drivers/STM32F2xx_HAL_Driver/Src/stm32f2xx_hal_exti.c **** 
 418:Drivers/STM32F2xx_HAL_Driver/Src/stm32f2xx_hal_exti.c **** /** @addtogroup EXTI_Exported_Functions_Group2
 419:Drivers/STM32F2xx_HAL_Driver/Src/stm32f2xx_hal_exti.c ****   *  @brief EXTI IO functions.
 420:Drivers/STM32F2xx_HAL_Driver/Src/stm32f2xx_hal_exti.c ****   *
 421:Drivers/STM32F2xx_HAL_Driver/Src/stm32f2xx_hal_exti.c **** @verbatim
 422:Drivers/STM32F2xx_HAL_Driver/Src/stm32f2xx_hal_exti.c ****  ===============================================================================
 423:Drivers/STM32F2xx_HAL_Driver/Src/stm32f2xx_hal_exti.c ****                        ##### IO operation functions #####
 424:Drivers/STM32F2xx_HAL_Driver/Src/stm32f2xx_hal_exti.c ****  ===============================================================================
 425:Drivers/STM32F2xx_HAL_Driver/Src/stm32f2xx_hal_exti.c **** 
 426:Drivers/STM32F2xx_HAL_Driver/Src/stm32f2xx_hal_exti.c **** @endverbatim
 427:Drivers/STM32F2xx_HAL_Driver/Src/stm32f2xx_hal_exti.c ****   * @{
 428:Drivers/STM32F2xx_HAL_Driver/Src/stm32f2xx_hal_exti.c ****   */
 429:Drivers/STM32F2xx_HAL_Driver/Src/stm32f2xx_hal_exti.c **** 
 430:Drivers/STM32F2xx_HAL_Driver/Src/stm32f2xx_hal_exti.c **** /**
 431:Drivers/STM32F2xx_HAL_Driver/Src/stm32f2xx_hal_exti.c ****   * @brief  Handle EXTI interrupt request.
 432:Drivers/STM32F2xx_HAL_Driver/Src/stm32f2xx_hal_exti.c ****   * @param  hexti Exti handle.
 433:Drivers/STM32F2xx_HAL_Driver/Src/stm32f2xx_hal_exti.c ****   * @retval none.
 434:Drivers/STM32F2xx_HAL_Driver/Src/stm32f2xx_hal_exti.c ****   */
 435:Drivers/STM32F2xx_HAL_Driver/Src/stm32f2xx_hal_exti.c **** void HAL_EXTI_IRQHandler(EXTI_HandleTypeDef *hexti)
 436:Drivers/STM32F2xx_HAL_Driver/Src/stm32f2xx_hal_exti.c **** {
 703              		.loc 1 436 1 is_stmt 1 view -0
 704              		.cfi_startproc
 705              		@ args = 0, pretend = 0, frame = 0
 706              		@ frame_needed = 0, uses_anonymous_args = 0
 707              		.loc 1 436 1 is_stmt 0 view .LVU226
 708 0000 08B5     		push	{r3, lr}
ARM GAS  /tmp/ccNyIpV0.s 			page 22


 709              	.LCFI12:
 710              		.cfi_def_cfa_offset 8
 711              		.cfi_offset 3, -8
 712              		.cfi_offset 14, -4
 437:Drivers/STM32F2xx_HAL_Driver/Src/stm32f2xx_hal_exti.c ****   uint32_t regval;
 713              		.loc 1 437 3 is_stmt 1 view .LVU227
 438:Drivers/STM32F2xx_HAL_Driver/Src/stm32f2xx_hal_exti.c ****   uint32_t maskline;
 714              		.loc 1 438 3 view .LVU228
 439:Drivers/STM32F2xx_HAL_Driver/Src/stm32f2xx_hal_exti.c **** 
 440:Drivers/STM32F2xx_HAL_Driver/Src/stm32f2xx_hal_exti.c ****   /* Compute line mask */
 441:Drivers/STM32F2xx_HAL_Driver/Src/stm32f2xx_hal_exti.c ****   maskline = (1uL << (hexti->Line & EXTI_PIN_MASK));
 715              		.loc 1 441 3 view .LVU229
 716              		.loc 1 441 28 is_stmt 0 view .LVU230
 717 0002 0368     		ldr	r3, [r0]
 718              		.loc 1 441 35 view .LVU231
 719 0004 03F01F02 		and	r2, r3, #31
 720              		.loc 1 441 12 view .LVU232
 721 0008 0123     		movs	r3, #1
 722 000a 9340     		lsls	r3, r3, r2
 723              	.LVL59:
 442:Drivers/STM32F2xx_HAL_Driver/Src/stm32f2xx_hal_exti.c **** 
 443:Drivers/STM32F2xx_HAL_Driver/Src/stm32f2xx_hal_exti.c ****   /* Get pending bit  */
 444:Drivers/STM32F2xx_HAL_Driver/Src/stm32f2xx_hal_exti.c ****   regval = (EXTI->PR & maskline);
 724              		.loc 1 444 3 is_stmt 1 view .LVU233
 725              		.loc 1 444 17 is_stmt 0 view .LVU234
 726 000c 044A     		ldr	r2, .L59
 727 000e 5269     		ldr	r2, [r2, #20]
 728              	.LVL60:
 445:Drivers/STM32F2xx_HAL_Driver/Src/stm32f2xx_hal_exti.c ****   if (regval != 0x00u)
 729              		.loc 1 445 3 is_stmt 1 view .LVU235
 730              		.loc 1 445 6 is_stmt 0 view .LVU236
 731 0010 1A42     		tst	r2, r3
 732 0012 04D0     		beq	.L56
 446:Drivers/STM32F2xx_HAL_Driver/Src/stm32f2xx_hal_exti.c ****   {
 447:Drivers/STM32F2xx_HAL_Driver/Src/stm32f2xx_hal_exti.c ****     /* Clear pending bit */
 448:Drivers/STM32F2xx_HAL_Driver/Src/stm32f2xx_hal_exti.c ****     EXTI->PR = maskline;
 733              		.loc 1 448 5 is_stmt 1 view .LVU237
 734              		.loc 1 448 14 is_stmt 0 view .LVU238
 735 0014 024A     		ldr	r2, .L59
 736              	.LVL61:
 737              		.loc 1 448 14 view .LVU239
 738 0016 5361     		str	r3, [r2, #20]
 449:Drivers/STM32F2xx_HAL_Driver/Src/stm32f2xx_hal_exti.c **** 
 450:Drivers/STM32F2xx_HAL_Driver/Src/stm32f2xx_hal_exti.c ****     /* Call callback */
 451:Drivers/STM32F2xx_HAL_Driver/Src/stm32f2xx_hal_exti.c ****     if (hexti->PendingCallback != NULL)
 739              		.loc 1 451 5 is_stmt 1 view .LVU240
 740              		.loc 1 451 14 is_stmt 0 view .LVU241
 741 0018 4368     		ldr	r3, [r0, #4]
 742              	.LVL62:
 743              		.loc 1 451 8 view .LVU242
 744 001a 03B1     		cbz	r3, .L56
 452:Drivers/STM32F2xx_HAL_Driver/Src/stm32f2xx_hal_exti.c ****     {
 453:Drivers/STM32F2xx_HAL_Driver/Src/stm32f2xx_hal_exti.c ****       hexti->PendingCallback();
 745              		.loc 1 453 7 is_stmt 1 view .LVU243
 746 001c 9847     		blx	r3
 747              	.LVL63:
 748              	.L56:
ARM GAS  /tmp/ccNyIpV0.s 			page 23


 454:Drivers/STM32F2xx_HAL_Driver/Src/stm32f2xx_hal_exti.c ****     }
 455:Drivers/STM32F2xx_HAL_Driver/Src/stm32f2xx_hal_exti.c ****   }
 456:Drivers/STM32F2xx_HAL_Driver/Src/stm32f2xx_hal_exti.c **** }
 749              		.loc 1 456 1 is_stmt 0 view .LVU244
 750 001e 08BD     		pop	{r3, pc}
 751              	.L60:
 752              		.align	2
 753              	.L59:
 754 0020 003C0140 		.word	1073822720
 755              		.cfi_endproc
 756              	.LFE77:
 758              		.section	.text.HAL_EXTI_GetPending,"ax",%progbits
 759              		.align	1
 760              		.global	HAL_EXTI_GetPending
 761              		.syntax unified
 762              		.thumb
 763              		.thumb_func
 764              		.fpu softvfp
 766              	HAL_EXTI_GetPending:
 767              	.LVL64:
 768              	.LFB78:
 457:Drivers/STM32F2xx_HAL_Driver/Src/stm32f2xx_hal_exti.c **** 
 458:Drivers/STM32F2xx_HAL_Driver/Src/stm32f2xx_hal_exti.c **** /**
 459:Drivers/STM32F2xx_HAL_Driver/Src/stm32f2xx_hal_exti.c ****   * @brief  Get interrupt pending bit of a dedicated line.
 460:Drivers/STM32F2xx_HAL_Driver/Src/stm32f2xx_hal_exti.c ****   * @param  hexti Exti handle.
 461:Drivers/STM32F2xx_HAL_Driver/Src/stm32f2xx_hal_exti.c ****   * @param  Edge Specify which pending edge as to be checked.
 462:Drivers/STM32F2xx_HAL_Driver/Src/stm32f2xx_hal_exti.c ****   *         This parameter can be one of the following values:
 463:Drivers/STM32F2xx_HAL_Driver/Src/stm32f2xx_hal_exti.c ****   *           @arg @ref EXTI_TRIGGER_RISING_FALLING
 464:Drivers/STM32F2xx_HAL_Driver/Src/stm32f2xx_hal_exti.c ****   *         This parameter is kept for compatibility with other series.
 465:Drivers/STM32F2xx_HAL_Driver/Src/stm32f2xx_hal_exti.c ****   * @retval 1 if interrupt is pending else 0.
 466:Drivers/STM32F2xx_HAL_Driver/Src/stm32f2xx_hal_exti.c ****   */
 467:Drivers/STM32F2xx_HAL_Driver/Src/stm32f2xx_hal_exti.c **** uint32_t HAL_EXTI_GetPending(EXTI_HandleTypeDef *hexti, uint32_t Edge)
 468:Drivers/STM32F2xx_HAL_Driver/Src/stm32f2xx_hal_exti.c **** {
 769              		.loc 1 468 1 is_stmt 1 view -0
 770              		.cfi_startproc
 771              		@ args = 0, pretend = 0, frame = 0
 772              		@ frame_needed = 0, uses_anonymous_args = 0
 773              		@ link register save eliminated.
 469:Drivers/STM32F2xx_HAL_Driver/Src/stm32f2xx_hal_exti.c ****   uint32_t regval;
 774              		.loc 1 469 3 view .LVU246
 470:Drivers/STM32F2xx_HAL_Driver/Src/stm32f2xx_hal_exti.c ****   uint32_t linepos;
 775              		.loc 1 470 3 view .LVU247
 471:Drivers/STM32F2xx_HAL_Driver/Src/stm32f2xx_hal_exti.c ****   uint32_t maskline;
 776              		.loc 1 471 3 view .LVU248
 472:Drivers/STM32F2xx_HAL_Driver/Src/stm32f2xx_hal_exti.c **** 
 473:Drivers/STM32F2xx_HAL_Driver/Src/stm32f2xx_hal_exti.c ****   /* Check parameters */
 474:Drivers/STM32F2xx_HAL_Driver/Src/stm32f2xx_hal_exti.c ****   assert_param(IS_EXTI_LINE(hexti->Line));
 777              		.loc 1 474 3 view .LVU249
 475:Drivers/STM32F2xx_HAL_Driver/Src/stm32f2xx_hal_exti.c ****   assert_param(IS_EXTI_CONFIG_LINE(hexti->Line));
 778              		.loc 1 475 3 view .LVU250
 476:Drivers/STM32F2xx_HAL_Driver/Src/stm32f2xx_hal_exti.c ****   assert_param(IS_EXTI_PENDING_EDGE(Edge));
 779              		.loc 1 476 3 view .LVU251
 477:Drivers/STM32F2xx_HAL_Driver/Src/stm32f2xx_hal_exti.c **** 
 478:Drivers/STM32F2xx_HAL_Driver/Src/stm32f2xx_hal_exti.c ****   /* Compute line mask */
 479:Drivers/STM32F2xx_HAL_Driver/Src/stm32f2xx_hal_exti.c ****   linepos = (hexti->Line & EXTI_PIN_MASK);
 780              		.loc 1 479 3 view .LVU252
 781              		.loc 1 479 19 is_stmt 0 view .LVU253
ARM GAS  /tmp/ccNyIpV0.s 			page 24


 782 0000 0368     		ldr	r3, [r0]
 783              		.loc 1 479 11 view .LVU254
 784 0002 03F01F03 		and	r3, r3, #31
 785              	.LVL65:
 480:Drivers/STM32F2xx_HAL_Driver/Src/stm32f2xx_hal_exti.c ****   maskline = (1uL << linepos);
 786              		.loc 1 480 3 is_stmt 1 view .LVU255
 787              		.loc 1 480 12 is_stmt 0 view .LVU256
 788 0006 0120     		movs	r0, #1
 789              	.LVL66:
 790              		.loc 1 480 12 view .LVU257
 791 0008 00FA03F2 		lsl	r2, r0, r3
 792              	.LVL67:
 481:Drivers/STM32F2xx_HAL_Driver/Src/stm32f2xx_hal_exti.c **** 
 482:Drivers/STM32F2xx_HAL_Driver/Src/stm32f2xx_hal_exti.c ****   /* return 1 if bit is set else 0 */
 483:Drivers/STM32F2xx_HAL_Driver/Src/stm32f2xx_hal_exti.c ****   regval = ((EXTI->PR & maskline) >> linepos);
 793              		.loc 1 483 3 is_stmt 1 view .LVU258
 794              		.loc 1 483 18 is_stmt 0 view .LVU259
 795 000c 0249     		ldr	r1, .L62
 796              	.LVL68:
 797              		.loc 1 483 18 view .LVU260
 798 000e 4869     		ldr	r0, [r1, #20]
 799              		.loc 1 483 23 view .LVU261
 800 0010 1040     		ands	r0, r0, r2
 801              	.LVL69:
 484:Drivers/STM32F2xx_HAL_Driver/Src/stm32f2xx_hal_exti.c ****   return regval;
 802              		.loc 1 484 3 is_stmt 1 view .LVU262
 485:Drivers/STM32F2xx_HAL_Driver/Src/stm32f2xx_hal_exti.c **** }
 803              		.loc 1 485 1 is_stmt 0 view .LVU263
 804 0012 D840     		lsrs	r0, r0, r3
 805              	.LVL70:
 806              		.loc 1 485 1 view .LVU264
 807 0014 7047     		bx	lr
 808              	.L63:
 809 0016 00BF     		.align	2
 810              	.L62:
 811 0018 003C0140 		.word	1073822720
 812              		.cfi_endproc
 813              	.LFE78:
 815              		.section	.text.HAL_EXTI_ClearPending,"ax",%progbits
 816              		.align	1
 817              		.global	HAL_EXTI_ClearPending
 818              		.syntax unified
 819              		.thumb
 820              		.thumb_func
 821              		.fpu softvfp
 823              	HAL_EXTI_ClearPending:
 824              	.LVL71:
 825              	.LFB79:
 486:Drivers/STM32F2xx_HAL_Driver/Src/stm32f2xx_hal_exti.c **** 
 487:Drivers/STM32F2xx_HAL_Driver/Src/stm32f2xx_hal_exti.c **** /**
 488:Drivers/STM32F2xx_HAL_Driver/Src/stm32f2xx_hal_exti.c ****   * @brief  Clear interrupt pending bit of a dedicated line.
 489:Drivers/STM32F2xx_HAL_Driver/Src/stm32f2xx_hal_exti.c ****   * @param  hexti Exti handle.
 490:Drivers/STM32F2xx_HAL_Driver/Src/stm32f2xx_hal_exti.c ****   * @param  Edge Specify which pending edge as to be clear.
 491:Drivers/STM32F2xx_HAL_Driver/Src/stm32f2xx_hal_exti.c ****   *         This parameter can be one of the following values:
 492:Drivers/STM32F2xx_HAL_Driver/Src/stm32f2xx_hal_exti.c ****   *           @arg @ref EXTI_TRIGGER_RISING_FALLING
 493:Drivers/STM32F2xx_HAL_Driver/Src/stm32f2xx_hal_exti.c ****   *         This parameter is kept for compatibility with other series.
 494:Drivers/STM32F2xx_HAL_Driver/Src/stm32f2xx_hal_exti.c ****   * @retval None.
ARM GAS  /tmp/ccNyIpV0.s 			page 25


 495:Drivers/STM32F2xx_HAL_Driver/Src/stm32f2xx_hal_exti.c ****   */
 496:Drivers/STM32F2xx_HAL_Driver/Src/stm32f2xx_hal_exti.c **** void HAL_EXTI_ClearPending(EXTI_HandleTypeDef *hexti, uint32_t Edge)
 497:Drivers/STM32F2xx_HAL_Driver/Src/stm32f2xx_hal_exti.c **** {
 826              		.loc 1 497 1 is_stmt 1 view -0
 827              		.cfi_startproc
 828              		@ args = 0, pretend = 0, frame = 0
 829              		@ frame_needed = 0, uses_anonymous_args = 0
 830              		@ link register save eliminated.
 498:Drivers/STM32F2xx_HAL_Driver/Src/stm32f2xx_hal_exti.c ****   uint32_t maskline;
 831              		.loc 1 498 3 view .LVU266
 499:Drivers/STM32F2xx_HAL_Driver/Src/stm32f2xx_hal_exti.c **** 
 500:Drivers/STM32F2xx_HAL_Driver/Src/stm32f2xx_hal_exti.c ****   /* Check parameters */
 501:Drivers/STM32F2xx_HAL_Driver/Src/stm32f2xx_hal_exti.c ****   assert_param(IS_EXTI_LINE(hexti->Line));
 832              		.loc 1 501 3 view .LVU267
 502:Drivers/STM32F2xx_HAL_Driver/Src/stm32f2xx_hal_exti.c ****   assert_param(IS_EXTI_CONFIG_LINE(hexti->Line));
 833              		.loc 1 502 3 view .LVU268
 503:Drivers/STM32F2xx_HAL_Driver/Src/stm32f2xx_hal_exti.c ****   assert_param(IS_EXTI_PENDING_EDGE(Edge));
 834              		.loc 1 503 3 view .LVU269
 504:Drivers/STM32F2xx_HAL_Driver/Src/stm32f2xx_hal_exti.c **** 
 505:Drivers/STM32F2xx_HAL_Driver/Src/stm32f2xx_hal_exti.c ****   /* Compute line mask */
 506:Drivers/STM32F2xx_HAL_Driver/Src/stm32f2xx_hal_exti.c ****   maskline = (1uL << (hexti->Line & EXTI_PIN_MASK));
 835              		.loc 1 506 3 view .LVU270
 836              		.loc 1 506 28 is_stmt 0 view .LVU271
 837 0000 0268     		ldr	r2, [r0]
 838              		.loc 1 506 35 view .LVU272
 839 0002 02F01F02 		and	r2, r2, #31
 840              		.loc 1 506 12 view .LVU273
 841 0006 0123     		movs	r3, #1
 842 0008 9340     		lsls	r3, r3, r2
 843              	.LVL72:
 507:Drivers/STM32F2xx_HAL_Driver/Src/stm32f2xx_hal_exti.c **** 
 508:Drivers/STM32F2xx_HAL_Driver/Src/stm32f2xx_hal_exti.c ****   /* Clear Pending bit */
 509:Drivers/STM32F2xx_HAL_Driver/Src/stm32f2xx_hal_exti.c ****   EXTI->PR =  maskline;
 844              		.loc 1 509 3 is_stmt 1 view .LVU274
 845              		.loc 1 509 12 is_stmt 0 view .LVU275
 846 000a 014A     		ldr	r2, .L65
 847 000c 5361     		str	r3, [r2, #20]
 510:Drivers/STM32F2xx_HAL_Driver/Src/stm32f2xx_hal_exti.c **** }
 848              		.loc 1 510 1 view .LVU276
 849 000e 7047     		bx	lr
 850              	.L66:
 851              		.align	2
 852              	.L65:
 853 0010 003C0140 		.word	1073822720
 854              		.cfi_endproc
 855              	.LFE79:
 857              		.section	.text.HAL_EXTI_GenerateSWI,"ax",%progbits
 858              		.align	1
 859              		.global	HAL_EXTI_GenerateSWI
 860              		.syntax unified
 861              		.thumb
 862              		.thumb_func
 863              		.fpu softvfp
 865              	HAL_EXTI_GenerateSWI:
 866              	.LVL73:
 867              	.LFB80:
 511:Drivers/STM32F2xx_HAL_Driver/Src/stm32f2xx_hal_exti.c **** 
ARM GAS  /tmp/ccNyIpV0.s 			page 26


 512:Drivers/STM32F2xx_HAL_Driver/Src/stm32f2xx_hal_exti.c **** /**
 513:Drivers/STM32F2xx_HAL_Driver/Src/stm32f2xx_hal_exti.c ****   * @brief  Generate a software interrupt for a dedicated line.
 514:Drivers/STM32F2xx_HAL_Driver/Src/stm32f2xx_hal_exti.c ****   * @param  hexti Exti handle.
 515:Drivers/STM32F2xx_HAL_Driver/Src/stm32f2xx_hal_exti.c ****   * @retval None.
 516:Drivers/STM32F2xx_HAL_Driver/Src/stm32f2xx_hal_exti.c ****   */
 517:Drivers/STM32F2xx_HAL_Driver/Src/stm32f2xx_hal_exti.c **** void HAL_EXTI_GenerateSWI(EXTI_HandleTypeDef *hexti)
 518:Drivers/STM32F2xx_HAL_Driver/Src/stm32f2xx_hal_exti.c **** {
 868              		.loc 1 518 1 is_stmt 1 view -0
 869              		.cfi_startproc
 870              		@ args = 0, pretend = 0, frame = 0
 871              		@ frame_needed = 0, uses_anonymous_args = 0
 872              		@ link register save eliminated.
 519:Drivers/STM32F2xx_HAL_Driver/Src/stm32f2xx_hal_exti.c ****   uint32_t maskline;
 873              		.loc 1 519 3 view .LVU278
 520:Drivers/STM32F2xx_HAL_Driver/Src/stm32f2xx_hal_exti.c **** 
 521:Drivers/STM32F2xx_HAL_Driver/Src/stm32f2xx_hal_exti.c ****   /* Check parameters */
 522:Drivers/STM32F2xx_HAL_Driver/Src/stm32f2xx_hal_exti.c ****   assert_param(IS_EXTI_LINE(hexti->Line));
 874              		.loc 1 522 3 view .LVU279
 523:Drivers/STM32F2xx_HAL_Driver/Src/stm32f2xx_hal_exti.c ****   assert_param(IS_EXTI_CONFIG_LINE(hexti->Line));
 875              		.loc 1 523 3 view .LVU280
 524:Drivers/STM32F2xx_HAL_Driver/Src/stm32f2xx_hal_exti.c **** 
 525:Drivers/STM32F2xx_HAL_Driver/Src/stm32f2xx_hal_exti.c ****   /* Compute line mask */
 526:Drivers/STM32F2xx_HAL_Driver/Src/stm32f2xx_hal_exti.c ****   maskline = (1uL << (hexti->Line & EXTI_PIN_MASK));
 876              		.loc 1 526 3 view .LVU281
 877              		.loc 1 526 28 is_stmt 0 view .LVU282
 878 0000 0268     		ldr	r2, [r0]
 879              		.loc 1 526 35 view .LVU283
 880 0002 02F01F02 		and	r2, r2, #31
 881              		.loc 1 526 12 view .LVU284
 882 0006 0123     		movs	r3, #1
 883 0008 9340     		lsls	r3, r3, r2
 884              	.LVL74:
 527:Drivers/STM32F2xx_HAL_Driver/Src/stm32f2xx_hal_exti.c **** 
 528:Drivers/STM32F2xx_HAL_Driver/Src/stm32f2xx_hal_exti.c ****   /* Generate Software interrupt */
 529:Drivers/STM32F2xx_HAL_Driver/Src/stm32f2xx_hal_exti.c ****   EXTI->SWIER = maskline;
 885              		.loc 1 529 3 is_stmt 1 view .LVU285
 886              		.loc 1 529 15 is_stmt 0 view .LVU286
 887 000a 014A     		ldr	r2, .L68
 888 000c 1361     		str	r3, [r2, #16]
 530:Drivers/STM32F2xx_HAL_Driver/Src/stm32f2xx_hal_exti.c **** }
 889              		.loc 1 530 1 view .LVU287
 890 000e 7047     		bx	lr
 891              	.L69:
 892              		.align	2
 893              	.L68:
 894 0010 003C0140 		.word	1073822720
 895              		.cfi_endproc
 896              	.LFE80:
 898              		.text
 899              	.Letext0:
 900              		.file 2 "/usr/arm-none-eabi/include/machine/_default_types.h"
 901              		.file 3 "/usr/arm-none-eabi/include/sys/_stdint.h"
 902              		.file 4 "Drivers/CMSIS/Include/core_cm3.h"
 903              		.file 5 "Drivers/CMSIS/Device/ST/STM32F2xx/Include/system_stm32f2xx.h"
 904              		.file 6 "Drivers/CMSIS/Device/ST/STM32F2xx/Include/stm32f205xx.h"
 905              		.file 7 "Drivers/STM32F2xx_HAL_Driver/Inc/stm32f2xx_hal_def.h"
 906              		.file 8 "Drivers/STM32F2xx_HAL_Driver/Inc/stm32f2xx_hal_exti.h"
ARM GAS  /tmp/ccNyIpV0.s 			page 27


 907              		.file 9 "Drivers/STM32F2xx_HAL_Driver/Inc/stm32f2xx_hal.h"
ARM GAS  /tmp/ccNyIpV0.s 			page 28

